TN:
SF:/home/artnr7/snake/src/brick_game/snake/controller/controller.cc
FN:22,52,_ZN3s2110Controller9userInputE12UserAction_tb
FN:54,57,_ZN3s2110Controller18updateCurrentStateEv
FNDA:12,_ZN3s2110Controller9userInputE12UserAction_tb
FNDA:9,_ZN3s2110Controller18updateCurrentStateEv
FNF:2
FNH:2
DA:22,12
DA:23,12
DA:25,12
DA:26,12
DA:27,7
DA:28,7
DA:29,7
DA:30,1
DA:31,1
DA:32,1
DA:33,0
DA:34,0
DA:35,0
DA:36,1
DA:37,1
DA:38,1
DA:39,1
DA:40,1
DA:41,1
DA:42,1
DA:43,1
DA:44,1
DA:45,1
DA:46,1
DA:47,1
DA:48,0
DA:49,0
DA:50,0
DA:52,12
DA:54,9
DA:55,9
DA:56,9
LF:32
LH:26
end_of_record
TN:
SF:/home/artnr7/snake/src/brick_game/snake/model/snake_anim/snake_anim.cc
FN:14,14,_ZN3s219SnakeAnim7GetBodyEv
FN:16,16,_ZN3s219SnakeAnim7GetHeadEv
FN:18,36,_ZN3s219SnakeAnim8MoveBodyEv
FN:38,47,_ZN3s219SnakeAnim14CheckCollisionEv
FN:4,12,_ZN3s219SnakeAnimC2Ev
FN:49,49,_ZN3s219SnakeAnim10RemoveTailEv
FN:51,83,_ZN3s219SnakeAnim12SetDirectionER12UserAction_t
FN:85,85,_ZN3s219SnakeAnim13GetConstSpeedEv
FN:87,87,_ZN3s219SnakeAnim8GetSpeedEv
FN:89,89,_ZN3s219SnakeAnim11GetAccSpeedEv
FNDA:20,_ZN3s219SnakeAnim7GetBodyEv
FNDA:30,_ZN3s219SnakeAnim7GetHeadEv
FNDA:0,_ZN3s219SnakeAnim8MoveBodyEv
FNDA:10,_ZN3s219SnakeAnim14CheckCollisionEv
FNDA:1,_ZN3s219SnakeAnimC2Ev
FNDA:0,_ZN3s219SnakeAnim10RemoveTailEv
FNDA:8,_ZN3s219SnakeAnim12SetDirectionER12UserAction_t
FNDA:1,_ZN3s219SnakeAnim13GetConstSpeedEv
FNDA:1,_ZN3s219SnakeAnim8GetSpeedEv
FNDA:1,_ZN3s219SnakeAnim11GetAccSpeedEv
FNF:10
FNH:8
DA:4,1
DA:5,5
DA:6,4
DA:8,1
DA:10,1
DA:11,1
DA:12,1
DA:14,20
DA:16,30
DA:18,0
DA:19,0
DA:21,0
DA:22,0
DA:23,0
DA:24,0
DA:25,0
DA:26,0
DA:27,0
DA:28,0
DA:29,0
DA:30,0
DA:31,0
DA:32,0
DA:35,0
DA:36,0
DA:38,10
DA:39,10
DA:40,10
DA:41,40
DA:42,30
DA:43,0
DA:46,10
DA:49,0
DA:51,8
DA:53,8
DA:54,2
DA:55,2
DA:56,2
DA:58,2
DA:59,2
DA:60,2
DA:61,2
DA:63,2
DA:64,2
DA:65,2
DA:66,2
DA:68,2
DA:69,2
DA:70,2
DA:71,2
DA:73,2
DA:74,0
DA:75,0
DA:76,0
DA:77,0
DA:78,0
DA:79,0
DA:80,0
DA:81,0
DA:83,8
DA:85,1
DA:87,1
DA:89,1
LF:63
LH:37
end_of_record
TN:
SF:/home/artnr7/snake/src/brick_game/snake/model/snake_anim/snake_anim.hpp
FNF:0
FNH:0
LF:0
LH:0
end_of_record
TN:
SF:/home/artnr7/snake/src/brick_game/snake/model/src/apple.cc
FN:23,27,_ZN3s215Model10ParseAppleEv
FN:30,46,_ZN3s215Model8EatAppleEv
FN:7,20,_ZN3s215Model10SpawnAppleEv
FNDA:11,_ZN3s215Model10ParseAppleEv
FNDA:10,_ZN3s215Model8EatAppleEv
FNDA:1,_ZN3s215Model10SpawnAppleEv
FNF:3
FNH:3
DA:7,1
DA:9,1
DA:10,1
DA:12,1
DA:13,1
DA:16,1
DA:17,1
DA:18,1
DA:20,1
DA:23,11
DA:24,11
DA:25,1
DA:26,10
DA:30,10
DA:31,10
DA:32,0
DA:34,10
DA:35,10
DA:36,10
DA:37,0
DA:38,0
DA:39,0
DA:40,0
DA:41,0
DA:42,0
DA:45,10
LF:26
LH:19
end_of_record
TN:
SF:/home/artnr7/snake/src/brick_game/snake/model/src/business.cc
FN:6,22,_ZN3s215Model8GameStepEv
FNDA:12,_ZN3s215Model8GameStepEv
FNF:1
FNH:1
DA:6,12
DA:7,12
DA:8,2
DA:9,10
DA:11,10
DA:13,10
DA:15,10
DA:17,10
DA:19,10
DA:21,10
LF:10
LH:10
end_of_record
TN:
SF:/home/artnr7/snake/src/brick_game/snake/model/src/gamestate.cc
FN:11,11,_ZN3s215Model17IsLanchedOrPausedEv
FN:13,16,_ZN3s215Model24IsGameoveredOrTerminatedEv
FN:18,18,_ZN3s215Model9IsGameEndEv
FN:20,20,_ZN3s215Model14IsGameInactiveEv
FN:3,3,_ZN3s215Model10IsLaunchedEv
FN:5,7,_ZN3s215Model12IsNoLaunchedEv
FN:9,9,_ZN3s215Model8IsPausedEv
FNDA:16,_ZN3s215Model17IsLanchedOrPausedEv
FNDA:1,_ZN3s215Model24IsGameoveredOrTerminatedEv
FNDA:1,_ZN3s215Model9IsGameEndEv
FNDA:0,_ZN3s215Model14IsGameInactiveEv
FNDA:141,_ZN3s215Model10IsLaunchedEv
FNDA:1,_ZN3s215Model12IsNoLaunchedEv
FNDA:17,_ZN3s215Model8IsPausedEv
FNF:7
FNH:6
DA:3,141
DA:5,1
DA:6,1
DA:9,17
DA:11,16
DA:13,1
DA:14,2
DA:15,2
DA:18,1
DA:20,0
LF:10
LH:9
end_of_record
TN:
SF:/home/artnr7/snake/src/brick_game/snake/model/src/highscore_and_level.cc
FN:14,24,_ZN3s215Model12SetHighscoreEv
FN:26,34,_ZN3s215Model12GetHighscoreEv
FN:8,12,_ZN3s215Model7LevelUpEv
FNDA:10,_ZN3s215Model12SetHighscoreEv
FNDA:1,_ZN3s215Model12GetHighscoreEv
FNDA:0,_ZN3s215Model7LevelUpEv
FNF:3
FNH:2
DA:8,0
DA:9,0
DA:10,0
DA:12,0
DA:14,10
DA:15,10
DA:16,0
DA:17,0
DA:18,0
DA:19,0
DA:20,0
DA:21,0
DA:23,0
DA:24,10
DA:26,1
DA:27,1
DA:28,1
DA:29,1
DA:30,1
DA:31,1
DA:33,1
DA:34,1
LF:22
LH:11
end_of_record
TN:
SF:/home/artnr7/snake/src/brick_game/snake/model/src/init.cc
FN:10,15,_ZN3s215Model8GetModelEv
FN:17,21,_ZN3s215ModelC2Ev
FN:23,31,_ZN3s215Model6MallocEv
FN:33,45,_ZN3s215Model8InitGameEv
FN:47,51,_ZN3s215Model9TakeBreakEv
FN:53,57,_ZN3s215Model5GoEndEv
FNDA:33,_ZN3s215Model8GetModelEv
FNDA:1,_ZN3s215ModelC2Ev
FNDA:1,_ZN3s215Model6MallocEv
FNDA:16,_ZN3s215Model8InitGameEv
FNDA:2,_ZN3s215Model9TakeBreakEv
FNDA:1,_ZN3s215Model5GoEndEv
FNF:6
FNH:6
DA:10,33
DA:11,33
DA:12,1
DA:14,33
DA:17,1
DA:18,1
DA:19,1
DA:20,1
DA:21,1
DA:23,1
DA:24,1
DA:25,21
DA:27,21
DA:28,200
DA:31,1
DA:33,16
DA:34,16
DA:35,2
DA:37,16
DA:38,15
DA:39,1
DA:40,1
DA:41,1
DA:42,1
DA:43,1
DA:44,1
DA:47,2
DA:48,2
DA:49,2
DA:51,2
DA:53,1
DA:54,1
DA:55,1
DA:57,1
LF:34
LH:34
end_of_record
TN:
SF:/home/artnr7/snake/src/brick_game/snake/model/src/snake_move.cc
FN:12,16,_ZN3s215Model15RemoveOrNotTailERbS1_
FN:6,10,_ZN3s215Model9MoveSnakeERb
FNDA:10,_ZN3s215Model15RemoveOrNotTailERbS1_
FNDA:10,_ZN3s215Model9MoveSnakeERb
FNF:2
FNH:2
DA:6,10
DA:7,10
DA:8,0
DA:10,10
DA:12,10
DA:13,10
DA:14,0
DA:16,10
LF:8
LH:6
end_of_record
TN:
SF:/home/artnr7/snake/src/brick_game/snake/model/src/speed.cc
FN:13,13,_ZN3s215Model11GetAccSpeedEv
FN:15,17,_ZN3s215Model18GetConstSnakeSpeedEv
FN:19,22,_ZN3s215Model13SetSnakeSpeedEv
FN:5,11,_ZN3s215Model11ChangeSpeedERb
FNDA:1,_ZN3s215Model11GetAccSpeedEv
FNDA:1,_ZN3s215Model18GetConstSnakeSpeedEv
FNDA:0,_ZN3s215Model13SetSnakeSpeedEv
FNDA:2,_ZN3s215Model11ChangeSpeedERb
FNF:4
FNH:3
DA:5,2
DA:6,2
DA:7,1
DA:9,1
DA:11,2
DA:13,1
DA:15,1
DA:16,1
DA:17,1
DA:19,0
DA:20,0
DA:21,0
DA:22,0
LF:13
LH:9
end_of_record
TN:
SF:/home/artnr7/snake/src/brick_game/snake/model/src/timer.cc
FN:4,26,_ZN3s215Model9MoveDelayEv
FNDA:10,_ZN3s215Model9MoveDelayEv
FNF:1
FNH:1
DA:4,10
DA:5,10
DA:6,0
DA:8,10
DA:9,10
DA:10,10
DA:11,10
DA:12,10
DA:13,10
DA:16,10
DA:18,10
DA:19,0
DA:20,0
DA:23,10
DA:25,10
LF:15
LH:12
end_of_record
TN:
SF:/home/artnr7/snake/src/brick_game/snake/model/src/utils.cc
FN:10,16,_ZN3s215Model9ParseObjsEv
FN:19,24,_ZN3s215Model10ParseSnakeEv
FN:27,35,_ZN3s215Model10ClearFieldEv
FN:39,46,_ZN3s215Model11WalkOnSnakeERNS_6PxCodeE
FN:49,53,_ZN3s215Model13IncreaseScoreEv
FN:55,59,_ZN3s215Model11SetSnakeDirER12UserAction_t
FN:63,68,_ZN3s215Model9CollisionEv
FN:70,79,_ZN3s215Model13WallCollisionEv
FN:8,8,_ZN3s215Model8GetSInfoEv
FN:81,87,_ZN3s215Model18SnakeSelfCollisionEv
FNDA:10,_ZN3s215Model9ParseObjsEv
FNDA:11,_ZN3s215Model10ParseSnakeEv
FNDA:10,_ZN3s215Model10ClearFieldEv
FNDA:10,_ZN3s215Model11WalkOnSnakeERNS_6PxCodeE
FNDA:0,_ZN3s215Model13IncreaseScoreEv
FNDA:8,_ZN3s215Model11SetSnakeDirER12UserAction_t
FNDA:10,_ZN3s215Model9CollisionEv
FNDA:10,_ZN3s215Model13WallCollisionEv
FNDA:21,_ZN3s215Model8GetSInfoEv
FNDA:10,_ZN3s215Model18SnakeSelfCollisionEv
FNF:10
FNH:9
DA:8,21
DA:10,10
DA:11,10
DA:12,0
DA:13,10
DA:14,10
DA:15,10
DA:19,11
DA:20,11
DA:21,1
DA:22,10
DA:23,10
DA:27,10
DA:28,10
DA:29,0
DA:30,210
DA:31,2200
DA:32,2000
DA:39,10
DA:40,10
DA:41,0
DA:42,10
DA:43,50
DA:44,40
DA:49,0
DA:50,0
DA:51,0
DA:52,0
DA:55,8
DA:56,8
DA:57,0
DA:58,8
DA:63,10
DA:64,10
DA:65,0
DA:66,10
DA:67,10
DA:70,10
DA:71,10
DA:72,0
DA:73,10
DA:75,10
DA:76,10
DA:77,0
DA:81,10
DA:82,10
DA:83,0
DA:84,10
DA:85,0
LF:49
LH:36
end_of_record
TN:
SF:/home/artnr7/snake/src/test_dir/snake/controller.cc
FN:16,16,_ZN28userInput_start_wrong_1_Test8TestBodyEv
FN:16,16,_ZN28userInput_start_wrong_1_TestC2Ev
FN:16,16,_ZN28userInput_start_wrong_1_TestD0Ev
FN:16,16,_ZN28userInput_start_wrong_1_TestD2Ev
FN:26,26,_ZN28userInput_pause_pause_1_Test8TestBodyEv
FN:26,26,_ZN28userInput_pause_pause_1_TestC2Ev
FN:26,26,_ZN28userInput_pause_pause_1_TestD0Ev
FN:26,26,_ZN28userInput_pause_pause_1_TestD2Ev
FN:38,45,_ZN22userInput_up_up_1_Test8TestBodyEv
FN:38,45,_ZN22userInput_up_up_1_TestC2Ev
FN:38,45,_ZN22userInput_up_up_1_TestD0Ev
FN:38,45,_ZN22userInput_up_up_1_TestD2Ev
FN:47,47,_ZN28userInput_right_right_1_Test8TestBodyEv
FN:47,47,_ZN28userInput_right_right_1_TestC2Ev
FN:47,47,_ZN28userInput_right_right_1_TestD0Ev
FN:47,47,_ZN28userInput_right_right_1_TestD2Ev
FN:5,5,_ZN28userInput_start_right_1_Test8TestBodyEv
FN:5,5,_ZN28userInput_start_right_1_TestC2Ev
FN:5,5,_ZN28userInput_start_right_1_TestD0Ev
FN:5,5,_ZN28userInput_start_right_1_TestD2Ev
FN:56,56,_ZN26userInput_down_down_1_Test8TestBodyEv
FN:56,56,_ZN26userInput_down_down_1_TestC2Ev
FN:56,56,_ZN26userInput_down_down_1_TestD0Ev
FN:56,56,_ZN26userInput_down_down_1_TestD2Ev
FN:65,65,_ZN26userInput_left_left_1_Test8TestBodyEv
FN:65,65,_ZN26userInput_left_left_1_TestC2Ev
FN:65,65,_ZN26userInput_left_left_1_TestD0Ev
FN:65,65,_ZN26userInput_left_left_1_TestD2Ev
FN:74,79,_ZN29updateCurrentState_get_1_Test8TestBodyEv
FN:74,79,_ZN29updateCurrentState_get_1_TestC2Ev
FN:74,79,_ZN29updateCurrentState_get_1_TestD0Ev
FN:74,79,_ZN29updateCurrentState_get_1_TestD2Ev
FNDA:1,_ZN28userInput_start_wrong_1_Test8TestBodyEv
FNDA:1,_ZN28userInput_start_wrong_1_TestC2Ev
FNDA:1,_ZN28userInput_start_wrong_1_TestD0Ev
FNDA:1,_ZN28userInput_start_wrong_1_TestD2Ev
FNDA:1,_ZN28userInput_pause_pause_1_Test8TestBodyEv
FNDA:1,_ZN28userInput_pause_pause_1_TestC2Ev
FNDA:1,_ZN28userInput_pause_pause_1_TestD0Ev
FNDA:1,_ZN28userInput_pause_pause_1_TestD2Ev
FNDA:1,_ZN22userInput_up_up_1_Test8TestBodyEv
FNDA:1,_ZN22userInput_up_up_1_TestC2Ev
FNDA:1,_ZN22userInput_up_up_1_TestD0Ev
FNDA:1,_ZN22userInput_up_up_1_TestD2Ev
FNDA:1,_ZN28userInput_right_right_1_Test8TestBodyEv
FNDA:1,_ZN28userInput_right_right_1_TestC2Ev
FNDA:1,_ZN28userInput_right_right_1_TestD0Ev
FNDA:1,_ZN28userInput_right_right_1_TestD2Ev
FNDA:1,_ZN28userInput_start_right_1_Test8TestBodyEv
FNDA:1,_ZN28userInput_start_right_1_TestC2Ev
FNDA:1,_ZN28userInput_start_right_1_TestD0Ev
FNDA:1,_ZN28userInput_start_right_1_TestD2Ev
FNDA:1,_ZN26userInput_down_down_1_Test8TestBodyEv
FNDA:1,_ZN26userInput_down_down_1_TestC2Ev
FNDA:1,_ZN26userInput_down_down_1_TestD0Ev
FNDA:1,_ZN26userInput_down_down_1_TestD2Ev
FNDA:1,_ZN26userInput_left_left_1_Test8TestBodyEv
FNDA:1,_ZN26userInput_left_left_1_TestC2Ev
FNDA:1,_ZN26userInput_left_left_1_TestD0Ev
FNDA:1,_ZN26userInput_left_left_1_TestD2Ev
FNDA:1,_ZN29updateCurrentState_get_1_Test8TestBodyEv
FNDA:1,_ZN29updateCurrentState_get_1_TestC2Ev
FNDA:1,_ZN29updateCurrentState_get_1_TestD0Ev
FNDA:1,_ZN29updateCurrentState_get_1_TestD2Ev
FNF:32
FNH:32
DA:5,4
DA:6,1
DA:7,1
DA:9,1
DA:10,1
DA:11,1
DA:13,1
DA:14,1
DA:16,4
DA:17,1
DA:18,1
DA:20,1
DA:21,1
DA:23,1
DA:24,1
DA:26,4
DA:27,1
DA:28,1
DA:30,1
DA:31,1
DA:32,1
DA:33,1
DA:35,1
DA:36,1
DA:38,4
DA:39,1
DA:40,1
DA:42,1
DA:44,1
DA:45,1
DA:47,4
DA:48,1
DA:49,1
DA:51,1
DA:53,1
DA:54,1
DA:56,4
DA:57,1
DA:58,1
DA:60,1
DA:62,1
DA:63,1
DA:65,4
DA:66,1
DA:67,1
DA:69,1
DA:71,1
DA:72,1
DA:74,4
DA:75,1
DA:76,1
DA:78,1
DA:79,1
LF:53
LH:53
end_of_record
TN:
SF:/home/artnr7/snake/src/test_dir/snake/main.cc
FN:3,6,main
FNDA:1,main
FNF:1
FNH:1
DA:3,1
DA:4,1
DA:5,1
LF:3
LH:3
end_of_record
TN:
SF:/home/artnr7/snake/src/test_dir/snake/utils.cc
FN:13,19,_Z9GInfoInitR10GameInfo_t
FN:21,27,_Z14GInfoWrongInitR10GameInfo_t
FN:29,50,_Z7EQGInfoR10GameInfo_tS0_
FN:4,11,_Z11MallocFieldPPPi
FN:52,52,_Z7EQEqualRb
FN:54,76,_Z7EQFieldPPiS0_
FN:78,89,_Z14AreObjsInFieldiPPi
FNDA:2,_Z9GInfoInitR10GameInfo_t
FNDA:1,_Z14GInfoWrongInitR10GameInfo_t
FNDA:4,_Z7EQGInfoR10GameInfo_tS0_
FNDA:2,_Z11MallocFieldPPPi
FNDA:13,_Z7EQEqualRb
FNDA:4,_Z7EQFieldPPiS0_
FNDA:2,_Z14AreObjsInFieldiPPi
FNF:7
FNH:7
DA:4,2
DA:6,42
DA:8,42
DA:9,440
DA:11,2
DA:13,2
DA:14,2
DA:15,2
DA:16,2
DA:17,2
DA:18,2
DA:19,2
DA:21,1
DA:22,1
DA:23,1
DA:24,1
DA:25,1
DA:26,1
DA:27,1
DA:29,4
DA:30,4
DA:32,4
DA:34,4
DA:35,4
DA:37,4
DA:38,4
DA:40,4
DA:41,4
DA:43,4
DA:44,4
DA:46,4
DA:47,4
DA:49,4
DA:52,13
DA:54,4
DA:55,4
DA:56,4
DA:57,4
DA:58,63
DA:59,660
DA:61,600
DA:62,0
DA:63,0
DA:70,4
DA:71,1
DA:75,4
DA:78,2
DA:79,2
DA:81,42
DA:82,440
DA:83,400
DA:84,5
DA:88,2
LF:53
LH:51
end_of_record
TN:
SF:/home/artnr7/snake/src/test_dir/snake/zmodel.cc
FN:108,108,_ZN32change_speed_change_speed_2_Test8TestBodyEv
FN:108,108,_ZN32change_speed_change_speed_2_TestC2Ev
FN:108,108,_ZN32change_speed_change_speed_2_TestD0Ev
FN:108,108,_ZN32change_speed_change_speed_2_TestD2Ev
FN:119,119,_ZN20go_end_go_end_1_Test8TestBodyEv
FN:119,119,_ZN20go_end_go_end_1_TestC2Ev
FN:119,119,_ZN20go_end_go_end_1_TestD0Ev
FN:119,119,_ZN20go_end_go_end_1_TestD2Ev
FN:21,21,_ZN28get_s_info_get_s_info_1_Test8TestBodyEv
FN:21,21,_ZN28get_s_info_get_s_info_1_TestC2Ev
FN:21,21,_ZN28get_s_info_get_s_info_1_TestD0Ev
FN:21,21,_ZN28get_s_info_get_s_info_1_TestD2Ev
FN:29,29,_ZN26init_game_init_game_1_Test8TestBodyEv
FN:29,29,_ZN26init_game_init_game_1_TestC2Ev
FN:29,29,_ZN26init_game_init_game_1_TestD0Ev
FN:29,29,_ZN26init_game_init_game_1_TestD2Ev
FN:44,44,_ZN30take_break_take_a_break_1_Test8TestBodyEv
FN:44,44,_ZN30take_break_take_a_break_1_TestC2Ev
FN:44,44,_ZN30take_break_take_a_break_1_TestD0Ev
FN:44,44,_ZN30take_break_take_a_break_1_TestD2Ev
FN:53,53,_ZN26set_snake_dir_up_up_1_Test8TestBodyEv
FN:53,53,_ZN26set_snake_dir_up_up_1_TestC2Ev
FN:53,53,_ZN26set_snake_dir_up_up_1_TestD0Ev
FN:53,53,_ZN26set_snake_dir_up_up_1_TestD2Ev
FN:6,6,_ZN26get_model_get_model_1_Test8TestBodyEv
FN:6,6,_ZN26get_model_get_model_1_TestC2Ev
FN:6,6,_ZN26get_model_get_model_1_TestD0Ev
FN:6,6,_ZN26get_model_get_model_1_TestD2Ev
FN:64,64,_ZN32set_snake_dir_right_right_1_Test8TestBodyEv
FN:64,64,_ZN32set_snake_dir_right_right_1_TestC2Ev
FN:64,64,_ZN32set_snake_dir_right_right_1_TestD0Ev
FN:64,64,_ZN32set_snake_dir_right_right_1_TestD2Ev
FN:75,75,_ZN30set_snake_dir_down_down_1_Test8TestBodyEv
FN:75,75,_ZN30set_snake_dir_down_down_1_TestC2Ev
FN:75,75,_ZN30set_snake_dir_down_down_1_TestD0Ev
FN:75,75,_ZN30set_snake_dir_down_down_1_TestD2Ev
FN:86,86,_ZN30set_snake_dir_left_left_1_Test8TestBodyEv
FN:86,86,_ZN30set_snake_dir_left_left_1_TestC2Ev
FN:86,86,_ZN30set_snake_dir_left_left_1_TestD0Ev
FN:86,86,_ZN30set_snake_dir_left_left_1_TestD2Ev
FN:97,106,_ZN32change_speed_change_speed_1_Test8TestBodyEv
FN:97,106,_ZN32change_speed_change_speed_1_TestC2Ev
FN:97,106,_ZN32change_speed_change_speed_1_TestD0Ev
FN:97,106,_ZN32change_speed_change_speed_1_TestD2Ev
FNDA:1,_ZN32change_speed_change_speed_2_Test8TestBodyEv
FNDA:1,_ZN32change_speed_change_speed_2_TestC2Ev
FNDA:1,_ZN32change_speed_change_speed_2_TestD0Ev
FNDA:1,_ZN32change_speed_change_speed_2_TestD2Ev
FNDA:1,_ZN20go_end_go_end_1_Test8TestBodyEv
FNDA:1,_ZN20go_end_go_end_1_TestC2Ev
FNDA:1,_ZN20go_end_go_end_1_TestD0Ev
FNDA:1,_ZN20go_end_go_end_1_TestD2Ev
FNDA:1,_ZN28get_s_info_get_s_info_1_Test8TestBodyEv
FNDA:1,_ZN28get_s_info_get_s_info_1_TestC2Ev
FNDA:1,_ZN28get_s_info_get_s_info_1_TestD0Ev
FNDA:1,_ZN28get_s_info_get_s_info_1_TestD2Ev
FNDA:1,_ZN26init_game_init_game_1_Test8TestBodyEv
FNDA:1,_ZN26init_game_init_game_1_TestC2Ev
FNDA:1,_ZN26init_game_init_game_1_TestD0Ev
FNDA:1,_ZN26init_game_init_game_1_TestD2Ev
FNDA:1,_ZN30take_break_take_a_break_1_Test8TestBodyEv
FNDA:1,_ZN30take_break_take_a_break_1_TestC2Ev
FNDA:1,_ZN30take_break_take_a_break_1_TestD0Ev
FNDA:1,_ZN30take_break_take_a_break_1_TestD2Ev
FNDA:1,_ZN26set_snake_dir_up_up_1_Test8TestBodyEv
FNDA:1,_ZN26set_snake_dir_up_up_1_TestC2Ev
FNDA:1,_ZN26set_snake_dir_up_up_1_TestD0Ev
FNDA:1,_ZN26set_snake_dir_up_up_1_TestD2Ev
FNDA:1,_ZN26get_model_get_model_1_Test8TestBodyEv
FNDA:1,_ZN26get_model_get_model_1_TestC2Ev
FNDA:1,_ZN26get_model_get_model_1_TestD0Ev
FNDA:1,_ZN26get_model_get_model_1_TestD2Ev
FNDA:1,_ZN32set_snake_dir_right_right_1_Test8TestBodyEv
FNDA:1,_ZN32set_snake_dir_right_right_1_TestC2Ev
FNDA:1,_ZN32set_snake_dir_right_right_1_TestD0Ev
FNDA:1,_ZN32set_snake_dir_right_right_1_TestD2Ev
FNDA:1,_ZN30set_snake_dir_down_down_1_Test8TestBodyEv
FNDA:1,_ZN30set_snake_dir_down_down_1_TestC2Ev
FNDA:1,_ZN30set_snake_dir_down_down_1_TestD0Ev
FNDA:1,_ZN30set_snake_dir_down_down_1_TestD2Ev
FNDA:1,_ZN30set_snake_dir_left_left_1_Test8TestBodyEv
FNDA:1,_ZN30set_snake_dir_left_left_1_TestC2Ev
FNDA:1,_ZN30set_snake_dir_left_left_1_TestD0Ev
FNDA:1,_ZN30set_snake_dir_left_left_1_TestD2Ev
FNDA:1,_ZN32change_speed_change_speed_1_Test8TestBodyEv
FNDA:1,_ZN32change_speed_change_speed_1_TestC2Ev
FNDA:1,_ZN32change_speed_change_speed_1_TestD0Ev
FNDA:1,_ZN32change_speed_change_speed_1_TestD2Ev
FNF:44
FNH:44
DA:6,4
DA:7,1
DA:9,1
DA:10,1
DA:12,1
DA:18,1
DA:19,1
DA:21,4
DA:22,1
DA:23,1
DA:24,1
DA:26,1
DA:27,1
DA:29,4
DA:30,1
DA:31,1
DA:33,1
DA:35,1
DA:36,1
DA:38,1
DA:39,1
DA:40,1
DA:41,1
DA:42,1
DA:44,4
DA:45,1
DA:46,1
DA:47,1
DA:49,1
DA:50,1
DA:51,1
DA:53,4
DA:54,1
DA:55,1
DA:57,1
DA:58,1
DA:60,1
DA:61,1
DA:62,1
DA:64,4
DA:65,1
DA:66,1
DA:68,1
DA:69,1
DA:71,1
DA:72,1
DA:73,1
DA:75,4
DA:76,1
DA:77,1
DA:79,1
DA:80,1
DA:82,1
DA:83,1
DA:84,1
DA:86,4
DA:87,1
DA:88,1
DA:90,1
DA:91,1
DA:93,1
DA:94,1
DA:95,1
DA:97,4
DA:98,1
DA:99,1
DA:101,1
DA:102,1
DA:104,1
DA:105,1
DA:106,1
DA:108,4
DA:109,1
DA:110,1
DA:112,1
DA:113,1
DA:115,1
DA:116,1
DA:117,1
DA:119,4
DA:120,1
DA:121,1
DA:122,1
DA:124,1
DA:125,1
DA:126,1
LF:86
LH:86
end_of_record
TN:
SF:/usr/include/c++/13/bits/alloc_traits.h
FNF:0
FNH:0
DA:482,260
DA:517,62
DA:540,4
DA:542,4
DA:560,0
DA:562,0
DA:576,313
DA:588,19
LF:8
LH:6
end_of_record
TN:
SF:/usr/include/c++/13/bits/allocator.h
FNF:0
FNH:0
DA:163,2
DA:168,58
DA:178,1
DA:184,21
DA:191,260
DA:193,0
DA:194,0
DA:195,0
DA:198,260
DA:205,62
DA:207,0
DA:208,0
DA:210,62
LF:13
LH:8
end_of_record
TN:
SF:/usr/include/c++/13/bits/basic_string.h
FN:1071,1072,_ZNKSt7__cxx1112basic_stringIcSt11char_traitsIcESaIcEE4sizeEv
FN:1078,1079,_ZNKSt7__cxx1112basic_stringIcSt11char_traitsIcESaIcEE6lengthEv
FN:1084,1085,_ZNKSt7__cxx1112basic_stringIcSt11char_traitsIcESaIcEE8max_sizeEv
FN:1169,1173,_ZNKSt7__cxx1112basic_stringIcSt11char_traitsIcESaIcEE8capacityEv
FN:124,137,_ZNSt7__cxx1112basic_stringIcSt11char_traitsIcESaIcEE11_S_allocateERS3_m
FN:1469,1475,_ZNSt7__cxx1112basic_stringIcSt11char_traitsIcESaIcEE6appendEPKc
FN:188,189,_ZNSt7__cxx1112basic_stringIcSt11char_traitsIcESaIcEE12_Alloc_hiderC2EPcRKS3_
FN:192,193,_ZNSt7__cxx1112basic_stringIcSt11char_traitsIcESaIcEE12_Alloc_hiderC2EPcOS3_
FN:212,213,_ZNSt7__cxx1112basic_stringIcSt11char_traitsIcESaIcEE7_M_dataEPc
FN:217,218,_ZNSt7__cxx1112basic_stringIcSt11char_traitsIcESaIcEE9_M_lengthEm
FN:222,223,_ZNKSt7__cxx1112basic_stringIcSt11char_traitsIcESaIcEE7_M_dataEv
FN:227,234,_ZNSt7__cxx1112basic_stringIcSt11char_traitsIcESaIcEE13_M_local_dataEv
FN:238,245,_ZNKSt7__cxx1112basic_stringIcSt11char_traitsIcESaIcEE13_M_local_dataEv
FN:249,250,_ZNSt7__cxx1112basic_stringIcSt11char_traitsIcESaIcEE11_M_capacityEm
FN:254,258,_ZNSt7__cxx1112basic_stringIcSt11char_traitsIcESaIcEE13_M_set_lengthEm
FN:2595,2596,_ZNKSt7__cxx1112basic_stringIcSt11char_traitsIcESaIcEE5c_strEv
FN:262,271,_ZNKSt7__cxx1112basic_stringIcSt11char_traitsIcESaIcEE11_M_is_localEv
FN:280,284,_ZNSt7__cxx1112basic_stringIcSt11char_traitsIcESaIcEE10_M_disposeEv
FN:288,289,_ZNSt7__cxx1112basic_stringIcSt11char_traitsIcESaIcEE10_M_destroyEm
FN:336,337,_ZNSt7__cxx1112basic_stringIcSt11char_traitsIcESaIcEE16_M_get_allocatorEv
FN:341,342,_ZNKSt7__cxx1112basic_stringIcSt11char_traitsIcESaIcEE16_M_get_allocatorEv
FN:397,401,_ZNKSt7__cxx1112basic_stringIcSt11char_traitsIcESaIcEE15_M_check_lengthEmmPKc
FN:425,431,_ZNSt7__cxx1112basic_stringIcSt11char_traitsIcESaIcEE7_S_copyEPcPKcm
FN:477,478,_ZNSt7__cxx1112basic_stringIcSt11char_traitsIcESaIcEE13_S_copy_charsEPcS5_S5_
FN:482,484,_ZNSt7__cxx1112basic_stringIcSt11char_traitsIcESaIcEE13_S_copy_charsEPcPKcS7_
FN:522,528,_ZNSt7__cxx1112basic_stringIcSt11char_traitsIcESaIcEEC2Ev
FN:547,553,_ZNSt7__cxx1112basic_stringIcSt11char_traitsIcESaIcEEC2ERKS4_
FN:641,650,_ZNSt7__cxx1112basic_stringIcSt11char_traitsIcESaIcEEC2IS3_EEPKcRKS3_
FN:803,804,_ZNSt7__cxx1112basic_stringIcSt11char_traitsIcESaIcEED2Ev
FNDA:270,_ZNKSt7__cxx1112basic_stringIcSt11char_traitsIcESaIcEE4sizeEv
FNDA:91,_ZNKSt7__cxx1112basic_stringIcSt11char_traitsIcESaIcEE6lengthEv
FNDA:313,_ZNKSt7__cxx1112basic_stringIcSt11char_traitsIcESaIcEE8max_sizeEv
FNDA:171,_ZNKSt7__cxx1112basic_stringIcSt11char_traitsIcESaIcEE8capacityEv
FNDA:258,_ZNSt7__cxx1112basic_stringIcSt11char_traitsIcESaIcEE11_S_allocateERS3_m
FNDA:0,_ZNSt7__cxx1112basic_stringIcSt11char_traitsIcESaIcEE6appendEPKc
FNDA:20,_ZNSt7__cxx1112basic_stringIcSt11char_traitsIcESaIcEE12_Alloc_hiderC2EPcRKS3_
FNDA:19,_ZNSt7__cxx1112basic_stringIcSt11char_traitsIcESaIcEE12_Alloc_hiderC2EPcOS3_
FNDA:74,_ZNSt7__cxx1112basic_stringIcSt11char_traitsIcESaIcEE7_M_dataEPc
FNDA:174,_ZNSt7__cxx1112basic_stringIcSt11char_traitsIcESaIcEE9_M_lengthEm
FNDA:762,_ZNKSt7__cxx1112basic_stringIcSt11char_traitsIcESaIcEE7_M_dataEv
FNDA:39,_ZNSt7__cxx1112basic_stringIcSt11char_traitsIcESaIcEE13_M_local_dataEv
FNDA:314,_ZNKSt7__cxx1112basic_stringIcSt11char_traitsIcESaIcEE13_M_local_dataEv
FNDA:74,_ZNSt7__cxx1112basic_stringIcSt11char_traitsIcESaIcEE11_M_capacityEm
FNDA:174,_ZNSt7__cxx1112basic_stringIcSt11char_traitsIcESaIcEE13_M_set_lengthEm
FNDA:0,_ZNKSt7__cxx1112basic_stringIcSt11char_traitsIcESaIcEE5c_strEv
FNDA:314,_ZNKSt7__cxx1112basic_stringIcSt11char_traitsIcESaIcEE11_M_is_localEv
FNDA:143,_ZNSt7__cxx1112basic_stringIcSt11char_traitsIcESaIcEE10_M_disposeEv
FNDA:62,_ZNSt7__cxx1112basic_stringIcSt11char_traitsIcESaIcEE10_M_destroyEm
FNDA:320,_ZNSt7__cxx1112basic_stringIcSt11char_traitsIcESaIcEE16_M_get_allocatorEv
FNDA:332,_ZNKSt7__cxx1112basic_stringIcSt11char_traitsIcESaIcEE16_M_get_allocatorEv
FNDA:0,_ZNKSt7__cxx1112basic_stringIcSt11char_traitsIcESaIcEE15_M_check_lengthEmmPKc
FNDA:210,_ZNSt7__cxx1112basic_stringIcSt11char_traitsIcESaIcEE7_S_copyEPcPKcm
FNDA:19,_ZNSt7__cxx1112basic_stringIcSt11char_traitsIcESaIcEE13_S_copy_charsEPcS5_S5_
FNDA:20,_ZNSt7__cxx1112basic_stringIcSt11char_traitsIcESaIcEE13_S_copy_charsEPcPKcS7_
FNDA:0,_ZNSt7__cxx1112basic_stringIcSt11char_traitsIcESaIcEEC2Ev
FNDA:19,_ZNSt7__cxx1112basic_stringIcSt11char_traitsIcESaIcEEC2ERKS4_
FNDA:20,_ZNSt7__cxx1112basic_stringIcSt11char_traitsIcESaIcEEC2IS3_EEPKcRKS3_
FNDA:47,_ZNSt7__cxx1112basic_stringIcSt11char_traitsIcESaIcEED2Ev
FNF:29
FNH:25
DA:124,258
DA:126,258
DA:136,258
DA:188,20
DA:189,20
DA:192,19
DA:193,19
DA:212,74
DA:213,74
DA:217,174
DA:218,174
DA:222,762
DA:223,762
DA:227,39
DA:230,39
DA:238,314
DA:241,314
DA:249,74
DA:250,74
DA:254,174
DA:256,174
DA:257,174
DA:258,174
DA:262,314
DA:264,314
DA:266,225
DA:267,0
DA:268,225
DA:270,89
DA:280,143
DA:282,143
DA:283,62
DA:284,143
DA:288,62
DA:289,62
DA:336,320
DA:337,320
DA:341,332
DA:342,332
DA:351,1
DA:352,0
DA:353,0
DA:355,1
DA:397,0
DA:399,0
DA:400,0
DA:401,0
DA:425,210
DA:427,210
DA:428,58
DA:430,152
DA:431,210
DA:477,19
DA:478,19
DA:482,20
DA:484,20
DA:522,0
DA:524,0
DA:527,0
DA:528,0
DA:547,19
DA:548,19
DA:549,19
DA:551,19
DA:553,19
DA:641,20
DA:642,20
DA:645,20
DA:646,0
DA:648,20
DA:649,20
DA:650,20
DA:803,47
DA:804,47
DA:1071,270
DA:1072,270
DA:1078,91
DA:1079,91
DA:1084,313
DA:1085,626
DA:1169,171
DA:1171,171
DA:1172,171
DA:1469,0
DA:1472,0
DA:1473,0
DA:1474,0
DA:2595,0
DA:2596,0
LF:89
LH:71
end_of_record
TN:
SF:/usr/include/c++/13/bits/basic_string.tcc
FN:138,160,_ZNSt7__cxx1112basic_stringIcSt11char_traitsIcESaIcEE9_M_createERmm
FN:221,252,_ZNSt7__cxx1112basic_stringIcSt11char_traitsIcESaIcEE12_M_constructIPKcEEvT_S8_St20forward_iterator_tag
FN:221,252,_ZNSt7__cxx1112basic_stringIcSt11char_traitsIcESaIcEE12_M_constructIPcEEvT_S7_St20forward_iterator_tag
FN:239,239,_ZZNSt7__cxx1112basic_stringIcSt11char_traitsIcESaIcEE12_M_constructIPKcEEvT_S8_St20forward_iterator_tagEN6_GuardC2EPS4_
FN:239,239,_ZZNSt7__cxx1112basic_stringIcSt11char_traitsIcESaIcEE12_M_constructIPcEEvT_S7_St20forward_iterator_tagEN6_GuardC2EPS4_
FN:242,242,_ZZNSt7__cxx1112basic_stringIcSt11char_traitsIcESaIcEE12_M_constructIPKcEEvT_S8_St20forward_iterator_tagEN6_GuardD2Ev
FN:242,242,_ZZNSt7__cxx1112basic_stringIcSt11char_traitsIcESaIcEE12_M_constructIPcEEvT_S7_St20forward_iterator_tagEN6_GuardD2Ev
FN:325,345,_ZNSt7__cxx1112basic_stringIcSt11char_traitsIcESaIcEE9_M_mutateEmmPKcm
FN:413,428,_ZNSt7__cxx1112basic_stringIcSt11char_traitsIcESaIcEE9_M_appendEPKcm
FNDA:258,_ZNSt7__cxx1112basic_stringIcSt11char_traitsIcESaIcEE9_M_createERmm
FNDA:20,_ZNSt7__cxx1112basic_stringIcSt11char_traitsIcESaIcEE12_M_constructIPKcEEvT_S8_St20forward_iterator_tag
FNDA:19,_ZNSt7__cxx1112basic_stringIcSt11char_traitsIcESaIcEE12_M_constructIPcEEvT_S7_St20forward_iterator_tag
FNDA:20,_ZZNSt7__cxx1112basic_stringIcSt11char_traitsIcESaIcEE12_M_constructIPKcEEvT_S8_St20forward_iterator_tagEN6_GuardC2EPS4_
FNDA:19,_ZZNSt7__cxx1112basic_stringIcSt11char_traitsIcESaIcEE12_M_constructIPcEEvT_S7_St20forward_iterator_tagEN6_GuardC2EPS4_
FNDA:20,_ZZNSt7__cxx1112basic_stringIcSt11char_traitsIcESaIcEE12_M_constructIPKcEEvT_S8_St20forward_iterator_tagEN6_GuardD2Ev
FNDA:19,_ZZNSt7__cxx1112basic_stringIcSt11char_traitsIcESaIcEE12_M_constructIPcEEvT_S7_St20forward_iterator_tagEN6_GuardD2Ev
FNDA:36,_ZNSt7__cxx1112basic_stringIcSt11char_traitsIcESaIcEE9_M_mutateEmmPKcm
FNDA:135,_ZNSt7__cxx1112basic_stringIcSt11char_traitsIcESaIcEE9_M_appendEPKcm
FNF:9
FNH:9
DA:138,258
DA:143,258
DA:144,0
DA:149,258
DA:151,55
DA:153,55
DA:154,0
DA:159,258
DA:221,39
DA:225,39
DA:227,39
DA:229,38
DA:230,38
DA:239,39
DA:242,39
DA:245,39
DA:247,39
DA:249,39
DA:251,39
DA:252,39
DA:325,36
DA:329,36
DA:331,36
DA:332,36
DA:334,36
DA:335,9
DA:336,36
DA:337,36
DA:338,36
DA:339,0
DA:340,0
DA:342,36
DA:343,36
DA:344,36
DA:345,36
DA:413,135
DA:416,135
DA:418,135
DA:420,126
DA:421,126
DA:424,9
DA:426,135
DA:427,135
LF:43
LH:39
end_of_record
TN:
SF:/usr/include/c++/13/bits/char_traits.h
FN:136,137,_ZN9__gnu_cxx11char_traitsIcE2eqERKcS3_
FN:199,206,_ZN9__gnu_cxx11char_traitsIcE6lengthEPKc
FN:253,268,_ZN9__gnu_cxx11char_traitsIcE4copyEPcPKcm
FN:351,359,_ZNSt11char_traitsIcE6assignERcRKc
FN:393,400,_ZNSt11char_traitsIcE6lengthEPKc
FN:427,436,_ZNSt11char_traitsIcE4copyEPcPKcm
FNDA:0,_ZN9__gnu_cxx11char_traitsIcE2eqERKcS3_
FNDA:0,_ZN9__gnu_cxx11char_traitsIcE6lengthEPKc
FNDA:0,_ZN9__gnu_cxx11char_traitsIcE4copyEPcPKcm
FNDA:232,_ZNSt11char_traitsIcE6assignERcRKc
FNDA:20,_ZNSt11char_traitsIcE6lengthEPKc
FNDA:152,_ZNSt11char_traitsIcE4copyEPcPKcm
FNF:6
FNH:3
DA:136,0
DA:137,0
DA:199,0
DA:202,0
DA:203,0
DA:204,0
DA:205,0
DA:253,0
DA:256,0
DA:257,0
DA:259,0
DA:261,0
DA:262,0
DA:263,0
DA:266,0
DA:267,0
DA:351,232
DA:354,232
DA:355,0
DA:358,232
DA:359,232
DA:393,20
DA:396,20
DA:397,0
DA:399,20
DA:427,152
DA:429,152
DA:430,0
DA:432,152
DA:433,0
DA:435,152
LF:31
LH:11
end_of_record
TN:
SF:/usr/include/c++/13/bits/chrono.h
FN:1019,1023,_ZNSt6chrono15time_point_castINS_8durationIlSt5ratioILl1ELl1000EEEENS_3_V212system_clockENS1_IlS2_ILl1ELl1000000000EEEEEENSt9enable_ifIXsrNS_13__is_durationIT_EE5valueENS_10time_pointIT0_SB_EEE4typeERKNSD_ISE_T1_EE
FN:208,213,_ZNSt6chrono20__duration_cast_implINS_8durationIlSt5ratioILl1ELl1000EEEES2_ILl1ELl1000000EElLb1ELb0EE6__castIlS2_ILl1ELl1000000000EEEES4_RKNS1_IT_T0_EE
FN:273,291,_ZNSt6chrono13duration_castINS_8durationIlSt5ratioILl1ELl1000EEEElS2_ILl1ELl1000000000EEEENSt9enable_ifIXsrNS_13__is_durationIT_EE5valueES8_E4typeERKNS1_IT0_T1_EE
FN:573,574,_ZNSt6chrono8durationIlSt5ratioILl1ELl1000EEEC2IlvEERKT_
FN:589,590,_ZNKSt6chrono8durationIlSt5ratioILl1ELl1000000000EEE5countEv
FN:589,590,_ZNKSt6chrono8durationIlSt5ratioILl1ELl1000EEE5countEv
FN:936,938,_ZNSt6chrono10time_pointINS_3_V212system_clockENS_8durationIlSt5ratioILl1ELl1000EEEEEC2ERKS6_
FN:949,950,_ZNKSt6chrono10time_pointINS_3_V212system_clockENS_8durationIlSt5ratioILl1ELl1000000000EEEEE16time_since_epochEv
FN:949,950,_ZNKSt6chrono10time_pointINS_3_V212system_clockENS_8durationIlSt5ratioILl1ELl1000EEEEE16time_since_epochEv
FNDA:10,_ZNSt6chrono15time_point_castINS_8durationIlSt5ratioILl1ELl1000EEEENS_3_V212system_clockENS1_IlS2_ILl1ELl1000000000EEEEEENSt9enable_ifIXsrNS_13__is_durationIT_EE5valueENS_10time_pointIT0_SB_EEE4typeERKNSD_ISE_T1_EE
FNDA:10,_ZNSt6chrono20__duration_cast_implINS_8durationIlSt5ratioILl1ELl1000EEEES2_ILl1ELl1000000EElLb1ELb0EE6__castIlS2_ILl1ELl1000000000EEEES4_RKNS1_IT_T0_EE
FNDA:10,_ZNSt6chrono13duration_castINS_8durationIlSt5ratioILl1ELl1000EEEElS2_ILl1ELl1000000000EEEENSt9enable_ifIXsrNS_13__is_durationIT_EE5valueES8_E4typeERKNS1_IT0_T1_EE
FNDA:10,_ZNSt6chrono8durationIlSt5ratioILl1ELl1000EEEC2IlvEERKT_
FNDA:10,_ZNKSt6chrono8durationIlSt5ratioILl1ELl1000000000EEE5countEv
FNDA:21,_ZNKSt6chrono8durationIlSt5ratioILl1ELl1000EEE5countEv
FNDA:10,_ZNSt6chrono10time_pointINS_3_V212system_clockENS_8durationIlSt5ratioILl1ELl1000EEEEEC2ERKS6_
FNDA:10,_ZNKSt6chrono10time_pointINS_3_V212system_clockENS_8durationIlSt5ratioILl1ELl1000000000EEEEE16time_since_epochEv
FNDA:10,_ZNKSt6chrono10time_pointINS_3_V212system_clockENS_8durationIlSt5ratioILl1ELl1000EEEEE16time_since_epochEv
FNF:9
FNH:9
DA:208,10
DA:211,20
DA:212,10
DA:273,10
DA:287,10
DA:573,10
DA:574,10
DA:589,31
DA:590,31
DA:936,10
DA:937,10
DA:938,10
DA:949,20
DA:950,20
DA:1019,10
DA:1022,10
LF:16
LH:16
end_of_record
TN:
SF:/usr/include/c++/13/bits/cpp_type_traits.h
FN:607,608,_ZSt12__miter_baseIPPN3s218ObjectPcEET_S4_
FNDA:0,_ZSt12__miter_baseIPPN3s218ObjectPcEET_S4_
FNF:1
FNH:0
DA:607,0
DA:608,0
LF:2
LH:0
end_of_record
TN:
SF:/usr/include/c++/13/bits/deque.tcc
FN:164,180,_ZNSt5dequeIN3s218ObjectPcESaIS1_EE12emplace_backIJS1_EEERS1_DpOT_
FN:484,516,_ZNSt5dequeIN3s218ObjectPcESaIS1_EE16_M_push_back_auxIJS1_EEEvDpOT_
FN:523,556,_ZNSt5dequeIN3s218ObjectPcESaIS1_EE17_M_push_front_auxIJRKS1_EEEvDpOT_
FN:560,568,_ZNSt5dequeIN3s218ObjectPcESaIS1_EE15_M_pop_back_auxEv
FN:931,973,_ZNSt5dequeIN3s218ObjectPcESaIS1_EE17_M_reallocate_mapEmb
FNDA:4,_ZNSt5dequeIN3s218ObjectPcESaIS1_EE12emplace_backIJS1_EEERS1_DpOT_
FNDA:0,_ZNSt5dequeIN3s218ObjectPcESaIS1_EE16_M_push_back_auxIJS1_EEEvDpOT_
FNDA:0,_ZNSt5dequeIN3s218ObjectPcESaIS1_EE17_M_push_front_auxIJRKS1_EEEvDpOT_
FNDA:0,_ZNSt5dequeIN3s218ObjectPcESaIS1_EE15_M_pop_back_auxEv
FNDA:0,_ZNSt5dequeIN3s218ObjectPcESaIS1_EE17_M_reallocate_mapEmb
FNF:5
FNH:1
DA:164,4
DA:167,4
DA:168,4
DA:170,4
DA:173,4
DA:176,0
DA:178,4
DA:484,0
DA:492,0
DA:493,0
DA:496,0
DA:497,0
DA:501,0
DA:507,0
DA:509,0
DA:516,0
DA:523,0
DA:531,0
DA:532,0
DA:535,0
DA:536,0
DA:539,0
DA:541,0
DA:543,0
DA:556,0
DA:560,0
DA:563,0
DA:564,0
DA:565,0
DA:566,0
DA:568,0
DA:931,0
DA:934,0
DA:935,0
DA:936,0
DA:939,0
DA:941,0
DA:942,0
DA:943,0
DA:944,0
DA:945,0
DA:946,0
DA:949,0
DA:950,0
DA:951,0
DA:955,0
DA:956,0
DA:959,0
DA:960,0
DA:961,0
DA:962,0
DA:963,0
DA:965,0
DA:967,0
DA:968,0
DA:971,0
DA:972,0
DA:973,0
LF:58
LH:6
end_of_record
TN:
SF:/usr/include/c++/13/bits/move.h
FN:138,139,_ZSt9addressofIKcEPT_RS1_
FN:138,139,_ZSt9addressofIcEPT_RS0_
FN:51,52,_ZSt11__addressofIKcEPT_RS1_
FN:51,52,_ZSt11__addressofIcEPT_RS0_
FN:70,71,_ZSt7forwardIN3s218ObjectPcEEOT_RNSt16remove_referenceIS2_E4typeE
FN:70,71,_ZSt7forwardIRKN3s218ObjectPcEEOT_RNSt16remove_referenceIS4_E4typeE
FN:70,71,_ZSt7forwardIRKcEOT_RNSt16remove_referenceIS2_E4typeE
FN:70,71,_ZSt7forwardISt14default_deleteINSt7__cxx1112basic_stringIcSt11char_traitsIcESaIcEEEEEOT_RNSt16remove_referenceIS8_E4typeE
FN:97,98,_ZSt4moveIRN3s218ObjectPcEEONSt16remove_referenceIT_E4typeEOS4_
FN:97,98,_ZSt4moveIRPNSt7__cxx1112basic_stringIcSt11char_traitsIcESaIcEEEEONSt16remove_referenceIT_E4typeEOS9_
FN:97,98,_ZSt4moveIRPNSt7__cxx1118basic_stringstreamIcSt11char_traitsIcESaIcEEEEONSt16remove_referenceIT_E4typeEOS9_
FN:97,98,_ZSt4moveIRSaIcEEONSt16remove_referenceIT_E4typeEOS3_
FNDA:314,_ZSt9addressofIKcEPT_RS1_
FNDA:39,_ZSt9addressofIcEPT_RS0_
FNDA:314,_ZSt11__addressofIKcEPT_RS1_
FNDA:39,_ZSt11__addressofIcEPT_RS0_
FNDA:12,_ZSt7forwardIN3s218ObjectPcEEOT_RNSt16remove_referenceIS2_E4typeE
FNDA:0,_ZSt7forwardIRKN3s218ObjectPcEEOT_RNSt16remove_referenceIS4_E4typeE
FNDA:0,_ZSt7forwardIRKcEOT_RNSt16remove_referenceIS2_E4typeE
FNDA:0,_ZSt7forwardISt14default_deleteINSt7__cxx1112basic_stringIcSt11char_traitsIcESaIcEEEEEOT_RNSt16remove_referenceIS8_E4typeE
FNDA:4,_ZSt4moveIRN3s218ObjectPcEEONSt16remove_referenceIT_E4typeEOS4_
FNDA:0,_ZSt4moveIRPNSt7__cxx1112basic_stringIcSt11char_traitsIcESaIcEEEEONSt16remove_referenceIT_E4typeEOS9_
FNDA:0,_ZSt4moveIRPNSt7__cxx1118basic_stringstreamIcSt11char_traitsIcESaIcEEEEONSt16remove_referenceIT_E4typeEOS9_
FNDA:19,_ZSt4moveIRSaIcEEONSt16remove_referenceIT_E4typeEOS3_
FNF:12
FNH:7
DA:51,353
DA:52,353
DA:70,12
DA:71,12
DA:97,23
DA:98,23
DA:138,353
DA:139,353
LF:8
LH:8
end_of_record
TN:
SF:/usr/include/c++/13/bits/new_allocator.h
FN:126,152,_ZNSt15__new_allocatorIN3s218ObjectPcEE8allocateEmPKv
FN:126,152,_ZNSt15__new_allocatorIPN3s218ObjectPcEE8allocateEmPKv
FN:126,152,_ZNSt15__new_allocatorIcE8allocateEmPKv
FN:156,173,_ZNSt15__new_allocatorIN3s218ObjectPcEE10deallocateEPS1_m
FN:156,173,_ZNSt15__new_allocatorIPN3s218ObjectPcEE10deallocateEPS2_m
FN:156,173,_ZNSt15__new_allocatorIcE10deallocateEPcm
FNDA:1,_ZNSt15__new_allocatorIN3s218ObjectPcEE8allocateEmPKv
FNDA:1,_ZNSt15__new_allocatorIPN3s218ObjectPcEE8allocateEmPKv
FNDA:258,_ZNSt15__new_allocatorIcE8allocateEmPKv
FNDA:0,_ZNSt15__new_allocatorIN3s218ObjectPcEE10deallocateEPS1_m
FNDA:0,_ZNSt15__new_allocatorIPN3s218ObjectPcEE10deallocateEPS2_m
FNDA:62,_ZNSt15__new_allocatorIcE10deallocateEPcm
FNF:6
FNH:4
DA:88,3
DA:92,58
DA:126,260
DA:134,260
DA:138,0
DA:139,0
DA:140,0
DA:151,260
DA:156,62
DA:172,62
DA:233,260
LF:11
LH:8
end_of_record
TN:
SF:/usr/include/c++/13/bits/ptr_traits.h
FN:141,142,_ZNSt19__ptr_traits_ptr_toIPKcS0_Lb0EE10pointer_toERS0_
FN:141,142,_ZNSt19__ptr_traits_ptr_toIPccLb0EE10pointer_toERc
FNDA:314,_ZNSt19__ptr_traits_ptr_toIPKcS0_Lb0EE10pointer_toERS0_
FNDA:39,_ZNSt19__ptr_traits_ptr_toIPccLb0EE10pointer_toERc
FNF:2
FNH:2
DA:141,353
DA:142,353
LF:2
LH:2
end_of_record
TN:
SF:/usr/include/c++/13/bits/random.h
FN:139,145,_ZNSt8__detail4_ModImLm4294967296ELm1ELm0ELb1ELb1EE6__calcEm
FN:139,145,_ZNSt8__detail4_ModImLm624ELm1ELm0ELb1ELb1EE6__calcEm
FN:150,160,_ZNSt8__detail5__modImLm4294967296ELm1ELm0EEET_S1_
FN:150,160,_ZNSt8__detail5__modImLm624ELm1ELm0EEET_S1_
FN:1658,1658,_ZNSt13random_deviceC2Ev
FN:1663,1664,_ZNSt13random_deviceD2Ev
FN:1679,1680,_ZNSt13random_deviceclEv
FN:545,546,_ZNSt23mersenne_twister_engineImLm32ELm624ELm397ELm31ELm2567483615ELm11ELm4294967295ELm7ELm2636928640ELm15ELm4022730752ELm18ELm1812433253EEC2Em
FNDA:624,_ZNSt8__detail4_ModImLm4294967296ELm1ELm0ELb1ELb1EE6__calcEm
FNDA:623,_ZNSt8__detail4_ModImLm624ELm1ELm0ELb1ELb1EE6__calcEm
FNDA:624,_ZNSt8__detail5__modImLm4294967296ELm1ELm0EEET_S1_
FNDA:623,_ZNSt8__detail5__modImLm624ELm1ELm0EEET_S1_
FNDA:1,_ZNSt13random_deviceC2Ev
FNDA:1,_ZNSt13random_deviceD2Ev
FNDA:1,_ZNSt13random_deviceclEv
FNDA:1,_ZNSt23mersenne_twister_engineImLm32ELm624ELm397ELm31ELm2567483615ELm11ELm4294967295ELm7ELm2636928640ELm15ELm4022730752ELm18ELm1812433253EEC2Em
FNF:8
FNH:8
DA:139,1247
DA:141,1247
DA:143,1247
DA:144,1247
DA:150,1247
DA:157,1247
DA:158,1247
DA:545,1
DA:546,1
DA:1658,3
DA:1663,1
DA:1664,1
DA:1679,1
DA:1680,1
LF:14
LH:14
end_of_record
TN:
SF:/usr/include/c++/13/bits/random.tcc
FN:326,343,_ZNSt23mersenne_twister_engineImLm32ELm624ELm397ELm31ELm2567483615ELm11ELm4294967295ELm7ELm2636928640ELm15ELm4022730752ELm18ELm1812433253EE4seedEm
FN:397,425,_ZNSt23mersenne_twister_engineImLm32ELm624ELm397ELm31ELm2567483615ELm11ELm4294967295ELm7ELm2636928640ELm15ELm4022730752ELm18ELm1812433253EE11_M_gen_randEv
FN:453,469,_ZNSt23mersenne_twister_engineImLm32ELm624ELm397ELm31ELm2567483615ELm11ELm4294967295ELm7ELm2636928640ELm15ELm4022730752ELm18ELm1812433253EEclEv
FNDA:1,_ZNSt23mersenne_twister_engineImLm32ELm624ELm397ELm31ELm2567483615ELm11ELm4294967295ELm7ELm2636928640ELm15ELm4022730752ELm18ELm1812433253EE4seedEm
FNDA:1,_ZNSt23mersenne_twister_engineImLm32ELm624ELm397ELm31ELm2567483615ELm11ELm4294967295ELm7ELm2636928640ELm15ELm4022730752ELm18ELm1812433253EE11_M_gen_randEv
FNDA:2,_ZNSt23mersenne_twister_engineImLm32ELm624ELm397ELm31ELm2567483615ELm11ELm4294967295ELm7ELm2636928640ELm15ELm4022730752ELm18ELm1812433253EEclEv
FNF:3
FNH:3
DA:326,1
DA:330,1
DA:331,1
DA:333,624
DA:335,623
DA:336,623
DA:337,623
DA:338,623
DA:339,623
DA:340,623
DA:342,1
DA:343,1
DA:397,1
DA:401,1
DA:402,1
DA:404,228
DA:406,227
DA:407,227
DA:408,454
DA:409,227
DA:412,397
DA:414,396
DA:415,396
DA:416,792
DA:417,396
DA:420,1
DA:421,1
DA:422,2
DA:423,1
DA:424,1
DA:425,1
DA:453,2
DA:458,2
DA:459,1
DA:462,2
DA:463,2
DA:464,2
DA:465,2
DA:466,2
DA:468,2
LF:40
LH:40
end_of_record
TN:
SF:/usr/include/c++/13/bits/stl_algobase.h
FN:233,241,_ZSt3minImERKT_S2_S2_
FN:257,265,_ZSt3maxImERKT_S2_S2_
FN:316,318,_ZSt12__niter_baseIPPN3s218ObjectPcEET_S4_
FN:338,339,_ZSt12__niter_wrapIPPN3s218ObjectPcEET_RKS4_S4_
FN:383,393,_ZNSt11__copy_moveILb0ELb0ESt26random_access_iterator_tagE8__copy_mIPPN3s218ObjectPcES6_EET0_T_S8_S7_
FN:397,398,_ZNSt11__copy_moveILb0ELb0ESt26random_access_iterator_tagE12__assign_oneIPN3s218ObjectPcES5_EEvPT_PT0_
FN:433,442,_ZNSt11__copy_moveILb0ELb1ESt26random_access_iterator_tagE8__copy_mIPN3s218ObjectPcES5_EEPT0_PT_S9_S7_
FN:497,507,_ZSt14__copy_move_a2ILb0EPPN3s218ObjectPcES3_ET1_T0_S5_S4_
FN:532,533,_ZSt14__copy_move_a1ILb0EPPN3s218ObjectPcES3_ET1_T0_S5_S4_
FN:538,544,_ZSt13__copy_move_aILb0EPPN3s218ObjectPcES3_ET1_T0_S5_S4_
FN:624,634,_ZSt4copyIPPN3s218ObjectPcES3_ET0_T_S5_S4_
FN:710,717,_ZNSt20__copy_move_backwardILb0ELb0ESt26random_access_iterator_tagE13__copy_move_bIPPN3s218ObjectPcES6_EET0_T_S8_S7_
FN:744,753,_ZNSt20__copy_move_backwardILb0ELb1ESt26random_access_iterator_tagE13__copy_move_bIPN3s218ObjectPcES5_EEPT0_PT_S9_S7_
FN:759,772,_ZSt23__copy_move_backward_a2ILb0EPPN3s218ObjectPcES3_ET1_T0_S5_S4_
FN:777,778,_ZSt23__copy_move_backward_a1ILb0EPPN3s218ObjectPcES3_ET1_T0_S5_S4_
FN:805,811,_ZSt22__copy_move_backward_aILb0EPPN3s218ObjectPcES3_ET1_T0_S5_S4_
FN:857,868,_ZSt13copy_backwardIPPN3s218ObjectPcES3_ET0_T_S5_S4_
FNDA:0,_ZSt3minImERKT_S2_S2_
FNDA:1,_ZSt3maxImERKT_S2_S2_
FNDA:0,_ZSt12__niter_baseIPPN3s218ObjectPcEET_S4_
FNDA:0,_ZSt12__niter_wrapIPPN3s218ObjectPcEET_RKS4_S4_
FNDA:0,_ZNSt11__copy_moveILb0ELb0ESt26random_access_iterator_tagE8__copy_mIPPN3s218ObjectPcES6_EET0_T_S8_S7_
FNDA:0,_ZNSt11__copy_moveILb0ELb0ESt26random_access_iterator_tagE12__assign_oneIPN3s218ObjectPcES5_EEvPT_PT0_
FNDA:0,_ZNSt11__copy_moveILb0ELb1ESt26random_access_iterator_tagE8__copy_mIPN3s218ObjectPcES5_EEPT0_PT_S9_S7_
FNDA:0,_ZSt14__copy_move_a2ILb0EPPN3s218ObjectPcES3_ET1_T0_S5_S4_
FNDA:0,_ZSt14__copy_move_a1ILb0EPPN3s218ObjectPcES3_ET1_T0_S5_S4_
FNDA:0,_ZSt13__copy_move_aILb0EPPN3s218ObjectPcES3_ET1_T0_S5_S4_
FNDA:0,_ZSt4copyIPPN3s218ObjectPcES3_ET0_T_S5_S4_
FNDA:0,_ZNSt20__copy_move_backwardILb0ELb0ESt26random_access_iterator_tagE13__copy_move_bIPPN3s218ObjectPcES6_EET0_T_S8_S7_
FNDA:0,_ZNSt20__copy_move_backwardILb0ELb1ESt26random_access_iterator_tagE13__copy_move_bIPN3s218ObjectPcES5_EEPT0_PT_S9_S7_
FNDA:0,_ZSt23__copy_move_backward_a2ILb0EPPN3s218ObjectPcES3_ET1_T0_S5_S4_
FNDA:0,_ZSt23__copy_move_backward_a1ILb0EPPN3s218ObjectPcES3_ET1_T0_S5_S4_
FNDA:0,_ZSt22__copy_move_backward_aILb0EPPN3s218ObjectPcES3_ET1_T0_S5_S4_
FNDA:0,_ZSt13copy_backwardIPPN3s218ObjectPcES3_ET0_T_S5_S4_
FNF:17
FNH:1
DA:233,0
DA:238,0
DA:239,0
DA:240,0
DA:257,1
DA:262,1
DA:263,0
DA:264,1
DA:316,0
DA:318,0
DA:338,0
DA:339,0
DA:383,0
DA:386,0
DA:388,0
DA:389,0
DA:390,0
DA:392,0
DA:397,0
DA:398,0
DA:433,0
DA:435,0
DA:436,0
DA:437,0
DA:438,0
DA:440,0
DA:441,0
DA:497,0
DA:501,0
DA:503,0
DA:506,0
DA:532,0
DA:533,0
DA:538,0
DA:540,0
DA:543,0
DA:624,0
DA:633,0
DA:710,0
DA:713,0
DA:714,0
DA:715,0
DA:716,0
DA:744,0
DA:746,0
DA:747,0
DA:748,0
DA:749,0
DA:751,0
DA:752,0
DA:759,0
DA:763,0
DA:765,0
DA:769,0
DA:771,0
DA:777,0
DA:778,0
DA:805,0
DA:807,0
DA:810,0
DA:857,0
DA:867,0
LF:62
LH:3
end_of_record
TN:
SF:/usr/include/c++/13/bits/stl_construct.h
FN:80,89,_ZSt10destroy_atIN3s218ObjectPcEEvPT_
FN:94,97,_ZSt12construct_atIN3s218ObjectPcEJRKS1_EEDTgsnwcvPvLi0E_T_pispcl7declvalIT0_EEEEPS5_DpOS6_
FN:94,97,_ZSt12construct_atIN3s218ObjectPcEJS1_EEDTgsnwcvPvLi0E_T_pispcl7declvalIT0_EEEEPS3_DpOS4_
FN:94,97,_ZSt12construct_atIcJRKcEEDTgsnwcvPvLi0E_T_pispcl7declvalIT0_EEEEPS3_DpOS4_
FNDA:0,_ZSt10destroy_atIN3s218ObjectPcEEvPT_
FNDA:0,_ZSt12construct_atIN3s218ObjectPcEJRKS1_EEDTgsnwcvPvLi0E_T_pispcl7declvalIT0_EEEEPS5_DpOS6_
FNDA:4,_ZSt12construct_atIN3s218ObjectPcEJS1_EEDTgsnwcvPvLi0E_T_pispcl7declvalIT0_EEEEPS3_DpOS4_
FNDA:0,_ZSt12construct_atIcJRKcEEDTgsnwcvPvLi0E_T_pispcl7declvalIT0_EEEEPS3_DpOS4_
FNF:4
FNH:1
DA:80,0
DA:88,0
DA:89,0
DA:94,4
DA:97,4
LF:5
LH:2
end_of_record
TN:
SF:/usr/include/c++/13/bits/stl_deque.h
FN:1027,1028,_ZNSt5dequeIN3s218ObjectPcESaIS1_EED2Ev
FN:1151,1152,_ZNSt5dequeIN3s218ObjectPcESaIS1_EE5beginEv
FN:1170,1171,_ZNSt5dequeIN3s218ObjectPcESaIS1_EE3endEv
FN:1268,1269,_ZNKSt5dequeIN3s218ObjectPcESaIS1_EE4sizeEv
FN:1274,1275,_ZNKSt5dequeIN3s218ObjectPcESaIS1_EE8max_sizeEv
FN:131,132,_ZNSt15_Deque_iteratorIN3s218ObjectPcERS1_PS1_E14_S_buffer_sizeEv
FN:1468,1474,_ZNSt5dequeIN3s218ObjectPcESaIS1_EE4backEv
FN:1501,1512,_ZNSt5dequeIN3s218ObjectPcESaIS1_EE10push_frontERKS1_
FN:151,152,_ZNSt15_Deque_iteratorIN3s218ObjectPcERS1_PS1_EC2Ev
FN:1553,1554,_ZNSt5dequeIN3s218ObjectPcESaIS1_EE9push_backEOS1_
FN:1597,1609,_ZNSt5dequeIN3s218ObjectPcESaIS1_EE8pop_backEv
FN:168,170,_ZNSt15_Deque_iteratorIN3s218ObjectPcERS1_PS1_EC2ERKS4_
FN:181,182,_ZNKSt15_Deque_iteratorIN3s218ObjectPcERS1_PS1_EdeEv
FN:1876,1881,_ZNSt5dequeIN3s218ObjectPcESaIS1_EE11_S_max_sizeERKS2_
FN:190,199,_ZNSt15_Deque_iteratorIN3s218ObjectPcERS1_PS1_EppEv
FN:2087,2092,_ZNSt5dequeIN3s218ObjectPcESaIS1_EE15_M_destroy_dataESt15_Deque_iteratorIS1_RS1_PS1_ES7_RKS2_
FN:210,219,_ZNSt15_Deque_iteratorIN3s218ObjectPcERS1_PS1_EmmEv
FN:2168,2173,_ZNSt5dequeIN3s218ObjectPcESaIS1_EE22_M_reserve_map_at_backEm
FN:2176,2181,_ZNSt5dequeIN3s218ObjectPcESaIS1_EE23_M_reserve_map_at_frontEm
FN:230,246,_ZNSt15_Deque_iteratorIN3s218ObjectPcERS1_PS1_EpLEl
FN:263,268,_ZNSt15_Deque_iteratorIN3s218ObjectPcERS1_PS1_E11_M_set_nodeEPS3_
FN:272,273,_ZSteqRKSt15_Deque_iteratorIN3s218ObjectPcERS1_PS1_ES6_
FN:370,376,_ZStmiRKSt15_Deque_iteratorIN3s218ObjectPcERS1_PS1_ES6_
FN:397,402,_ZStplRKSt15_Deque_iteratorIN3s218ObjectPcERS1_PS1_El
FN:458,460,_ZNSt11_Deque_baseIN3s218ObjectPcESaIS1_EEC2Ev
FN:516,518,_ZNSt11_Deque_baseIN3s218ObjectPcESaIS1_EE16_Deque_impl_dataC2Ev
FN:545,548,_ZNSt11_Deque_baseIN3s218ObjectPcESaIS1_EE11_Deque_implC2Ev
FN:568,569,_ZNSt11_Deque_baseIN3s218ObjectPcESaIS1_EE19_M_get_Tp_allocatorEv
FN:572,573,_ZNKSt11_Deque_baseIN3s218ObjectPcESaIS1_EE19_M_get_Tp_allocatorEv
FN:576,577,_ZNKSt11_Deque_baseIN3s218ObjectPcESaIS1_EE20_M_get_map_allocatorEv
FN:580,584,_ZNSt11_Deque_baseIN3s218ObjectPcESaIS1_EE16_M_allocate_nodeEv
FN:587,591,_ZNSt11_Deque_baseIN3s218ObjectPcESaIS1_EE18_M_deallocate_nodeEPS1_
FN:594,598,_ZNSt11_Deque_baseIN3s218ObjectPcESaIS1_EE15_M_allocate_mapEm
FN:601,605,_ZNSt11_Deque_baseIN3s218ObjectPcESaIS1_EE17_M_deallocate_mapEPPS1_m
FN:617,626,_ZNSt11_Deque_baseIN3s218ObjectPcESaIS1_EED2Ev
FN:638,673,_ZNSt11_Deque_baseIN3s218ObjectPcESaIS1_EE17_M_initialize_mapEm
FN:677,691,_ZNSt11_Deque_baseIN3s218ObjectPcESaIS1_EE15_M_create_nodesEPPS1_S5_
FN:695,701,_ZNSt11_Deque_baseIN3s218ObjectPcESaIS1_EE16_M_destroy_nodesEPPS1_S5_
FN:855,855,_ZNSt5dequeIN3s218ObjectPcESaIS1_EEC2Ev
FN:96,98,_ZSt16__deque_buf_sizem
FNDA:0,_ZNSt5dequeIN3s218ObjectPcESaIS1_EED2Ev
FNDA:50,_ZNSt5dequeIN3s218ObjectPcESaIS1_EE5beginEv
FNDA:54,_ZNSt5dequeIN3s218ObjectPcESaIS1_EE3endEv
FNDA:0,_ZNKSt5dequeIN3s218ObjectPcESaIS1_EE4sizeEv
FNDA:0,_ZNKSt5dequeIN3s218ObjectPcESaIS1_EE8max_sizeEv
FNDA:12,_ZNSt15_Deque_iteratorIN3s218ObjectPcERS1_PS1_E14_S_buffer_sizeEv
FNDA:4,_ZNSt5dequeIN3s218ObjectPcESaIS1_EE4backEv
FNDA:0,_ZNSt5dequeIN3s218ObjectPcESaIS1_EE10push_frontERKS1_
FNDA:2,_ZNSt15_Deque_iteratorIN3s218ObjectPcERS1_PS1_EC2Ev
FNDA:4,_ZNSt5dequeIN3s218ObjectPcESaIS1_EE9push_backEOS1_
FNDA:0,_ZNSt5dequeIN3s218ObjectPcESaIS1_EE8pop_backEv
FNDA:114,_ZNSt15_Deque_iteratorIN3s218ObjectPcERS1_PS1_EC2ERKS4_
FNDA:174,_ZNKSt15_Deque_iteratorIN3s218ObjectPcERS1_PS1_EdeEv
FNDA:0,_ZNSt5dequeIN3s218ObjectPcESaIS1_EE11_S_max_sizeERKS2_
FNDA:70,_ZNSt15_Deque_iteratorIN3s218ObjectPcERS1_PS1_EppEv
FNDA:0,_ZNSt5dequeIN3s218ObjectPcESaIS1_EE15_M_destroy_dataESt15_Deque_iteratorIS1_RS1_PS1_ES7_RKS2_
FNDA:4,_ZNSt15_Deque_iteratorIN3s218ObjectPcERS1_PS1_EmmEv
FNDA:0,_ZNSt5dequeIN3s218ObjectPcESaIS1_EE22_M_reserve_map_at_backEm
FNDA:0,_ZNSt5dequeIN3s218ObjectPcESaIS1_EE23_M_reserve_map_at_frontEm
FNDA:10,_ZNSt15_Deque_iteratorIN3s218ObjectPcERS1_PS1_EpLEl
FNDA:2,_ZNSt15_Deque_iteratorIN3s218ObjectPcERS1_PS1_E11_M_set_nodeEPS3_
FNDA:90,_ZSteqRKSt15_Deque_iteratorIN3s218ObjectPcERS1_PS1_ES6_
FNDA:0,_ZStmiRKSt15_Deque_iteratorIN3s218ObjectPcERS1_PS1_ES6_
FNDA:10,_ZStplRKSt15_Deque_iteratorIN3s218ObjectPcERS1_PS1_El
FNDA:1,_ZNSt11_Deque_baseIN3s218ObjectPcESaIS1_EEC2Ev
FNDA:1,_ZNSt11_Deque_baseIN3s218ObjectPcESaIS1_EE16_Deque_impl_dataC2Ev
FNDA:1,_ZNSt11_Deque_baseIN3s218ObjectPcESaIS1_EE11_Deque_implC2Ev
FNDA:0,_ZNSt11_Deque_baseIN3s218ObjectPcESaIS1_EE19_M_get_Tp_allocatorEv
FNDA:1,_ZNKSt11_Deque_baseIN3s218ObjectPcESaIS1_EE19_M_get_Tp_allocatorEv
FNDA:1,_ZNKSt11_Deque_baseIN3s218ObjectPcESaIS1_EE20_M_get_map_allocatorEv
FNDA:1,_ZNSt11_Deque_baseIN3s218ObjectPcESaIS1_EE16_M_allocate_nodeEv
FNDA:0,_ZNSt11_Deque_baseIN3s218ObjectPcESaIS1_EE18_M_deallocate_nodeEPS1_
FNDA:1,_ZNSt11_Deque_baseIN3s218ObjectPcESaIS1_EE15_M_allocate_mapEm
FNDA:0,_ZNSt11_Deque_baseIN3s218ObjectPcESaIS1_EE17_M_deallocate_mapEPPS1_m
FNDA:0,_ZNSt11_Deque_baseIN3s218ObjectPcESaIS1_EED2Ev
FNDA:1,_ZNSt11_Deque_baseIN3s218ObjectPcESaIS1_EE17_M_initialize_mapEm
FNDA:1,_ZNSt11_Deque_baseIN3s218ObjectPcESaIS1_EE15_M_create_nodesEPPS1_S5_
FNDA:0,_ZNSt11_Deque_baseIN3s218ObjectPcESaIS1_EE16_M_destroy_nodesEPPS1_S5_
FNDA:1,_ZNSt5dequeIN3s218ObjectPcESaIS1_EEC2Ev
FNDA:15,_ZSt16__deque_buf_sizem
FNF:40
FNH:25
DA:96,15
DA:98,15
DA:131,12
DA:132,12
DA:151,2
DA:152,2
DA:168,114
DA:169,114
DA:170,114
DA:181,174
DA:182,174
DA:190,70
DA:192,70
DA:193,70
DA:195,0
DA:196,0
DA:198,70
DA:210,4
DA:212,4
DA:214,0
DA:215,0
DA:217,4
DA:218,4
DA:230,10
DA:232,10
DA:233,10
DA:234,10
DA:237,0
DA:238,0
DA:239,0
DA:240,0
DA:241,0
DA:242,0
DA:243,0
DA:245,10
DA:263,2
DA:265,2
DA:266,2
DA:267,2
DA:268,2
DA:272,90
DA:273,90
DA:370,0
DA:372,0
DA:373,0
DA:374,0
DA:375,0
DA:397,10
DA:399,10
DA:400,10
DA:401,10
DA:458,1
DA:459,1
DA:460,1
DA:516,1
DA:517,1
DA:518,1
DA:545,1
DA:547,1
DA:548,1
DA:568,0
DA:569,0
DA:572,1
DA:573,1
DA:576,1
DA:577,2
DA:580,1
DA:583,2
DA:587,0
DA:590,0
DA:591,0
DA:594,1
DA:596,1
DA:597,2
DA:601,0
DA:603,0
DA:605,0
DA:617,0
DA:620,0
DA:622,0
DA:623,0
DA:624,0
DA:626,0
DA:638,1
DA:641,1
DA:644,2
DA:645,1
DA:646,1
DA:653,1
DA:654,1
DA:655,1
DA:658,1
DA:659,0
DA:661,0
DA:662,0
DA:663,0
DA:664,0
DA:667,1
DA:668,1
DA:669,1
DA:670,2
DA:671,1
DA:672,1
DA:673,1
DA:677,1
DA:683,2
DA:684,1
DA:686,0
DA:688,0
DA:689,0
DA:691,1
DA:695,0
DA:699,0
DA:700,0
DA:701,0
DA:855,1
DA:1027,0
DA:1028,0
DA:1151,50
DA:1152,50
DA:1170,54
DA:1171,54
DA:1268,0
DA:1269,0
DA:1274,0
DA:1275,0
DA:1468,4
DA:1471,4
DA:1472,4
DA:1473,4
DA:1501,0
DA:1503,0
DA:1505,0
DA:1506,0
DA:1508,0
DA:1511,0
DA:1512,0
DA:1553,4
DA:1554,4
DA:1597,0
DA:1600,0
DA:1601,0
DA:1603,0
DA:1604,0
DA:1608,0
DA:1609,0
DA:1876,0
DA:1878,0
DA:1879,0
DA:1880,0
DA:2087,0
DA:2092,0
DA:2168,0
DA:2170,0
DA:2171,0
DA:2172,0
DA:2173,0
DA:2176,0
DA:2178,0
DA:2179,0
DA:2180,0
DA:2181,0
LF:162
LH:84
end_of_record
TN:
SF:/usr/include/c++/13/bits/stl_iterator_base_funcs.h
FNF:0
FNH:0
DA:106,39
DA:151,78
DA:152,78
LF:3
LH:3
end_of_record
TN:
SF:/usr/include/c++/13/bits/stl_iterator_base_types.h
FNF:0
FNH:0
DA:240,39
LF:1
LH:1
end_of_record
TN:
SF:/usr/include/c++/13/bits/uniform_int_dist.h
FN:104,109,_ZNSt24uniform_int_distributionIiE10param_typeC2Eii
FN:112,113,_ZNKSt24uniform_int_distributionIiE10param_type1aEv
FN:116,117,_ZNKSt24uniform_int_distributionIiE10param_type1bEv
FN:142,146,_ZNSt24uniform_int_distributionIiEC2Eii
FN:203,204,_ZNSt24uniform_int_distributionIiEclISt23mersenne_twister_engineImLm32ELm624ELm397ELm31ELm2567483615ELm11ELm4294967295ELm7ELm2636928640ELm15ELm4022730752ELm18ELm1812433253EEEEiRT_
FN:257,281,_ZNSt24uniform_int_distributionIiE5_S_ndImSt23mersenne_twister_engineImLm32ELm624ELm397ELm31ELm2567483615ELm11ELm4294967295ELm7ELm2636928640ELm15ELm4022730752ELm18ELm1812433253EEjEET1_RT0_S4_
FN:287,373,_ZNSt24uniform_int_distributionIiEclISt23mersenne_twister_engineImLm32ELm624ELm397ELm31ELm2567483615ELm11ELm4294967295ELm7ELm2636928640ELm15ELm4022730752ELm18ELm1812433253EEEEiRT_RKNS0_10param_typeE
FNDA:2,_ZNSt24uniform_int_distributionIiE10param_typeC2Eii
FNDA:4,_ZNKSt24uniform_int_distributionIiE10param_type1aEv
FNDA:2,_ZNKSt24uniform_int_distributionIiE10param_type1bEv
FNDA:2,_ZNSt24uniform_int_distributionIiEC2Eii
FNDA:2,_ZNSt24uniform_int_distributionIiEclISt23mersenne_twister_engineImLm32ELm624ELm397ELm31ELm2567483615ELm11ELm4294967295ELm7ELm2636928640ELm15ELm4022730752ELm18ELm1812433253EEEEiRT_
FNDA:2,_ZNSt24uniform_int_distributionIiE5_S_ndImSt23mersenne_twister_engineImLm32ELm624ELm397ELm31ELm2567483615ELm11ELm4294967295ELm7ELm2636928640ELm15ELm4022730752ELm18ELm1812433253EEjEET1_RT0_S4_
FNDA:2,_ZNSt24uniform_int_distributionIiEclISt23mersenne_twister_engineImLm32ELm624ELm397ELm31ELm2567483615ELm11ELm4294967295ELm7ELm2636928640ELm15ELm4022730752ELm18ELm1812433253EEEEiRT_RKNS0_10param_typeE
FNF:7
FNH:7
DA:104,2
DA:106,2
DA:108,2
DA:109,2
DA:112,4
DA:113,4
DA:116,2
DA:117,2
DA:142,2
DA:145,2
DA:146,2
DA:203,2
DA:204,2
DA:257,2
DA:269,2
DA:270,2
DA:271,2
DA:273,0
DA:274,0
DA:276,0
DA:277,0
DA:280,2
DA:287,2
DA:295,2
DA:296,2
DA:299,2
DA:301,2
DA:302,2
DA:305,2
DA:309,2
DA:327,2
DA:328,2
DA:342,0
DA:362,0
DA:363,0
DA:364,0
DA:365,0
DA:367,0
DA:370,0
DA:372,2
LF:40
LH:29
end_of_record
TN:
SF:/usr/include/c++/13/bits/unique_ptr.h
FN:1069,1070,_ZSt11make_uniqueINSt7__cxx1112basic_stringIcSt11char_traitsIcESaIcEEEJEENSt8__detail9_MakeUniqIT_E15__single_objectEDpOT0_
FN:176,176,_ZNSt15__uniq_ptr_implINSt7__cxx1112basic_stringIcSt11char_traitsIcESaIcEEESt14default_deleteIS5_EEC2EPS5_
FN:189,194,_ZNSt15__uniq_ptr_implINSt7__cxx1112basic_stringIcSt11char_traitsIcESaIcEEESt14default_deleteIS5_EEaSEOS8_
FN:197,197,_ZNSt15__uniq_ptr_implINSt7__cxx1112basic_stringIcSt11char_traitsIcESaIcEEESt14default_deleteIS5_EE6_M_ptrEv
FN:197,197,_ZNSt15__uniq_ptr_implINSt7__cxx1118basic_stringstreamIcSt11char_traitsIcESaIcEEESt14default_deleteIS5_EE6_M_ptrEv
FN:199,199,_ZNKSt15__uniq_ptr_implINSt7__cxx1112basic_stringIcSt11char_traitsIcESaIcEEESt14default_deleteIS5_EE6_M_ptrEv
FN:199,199,_ZNKSt15__uniq_ptr_implINSt7__cxx1118basic_stringstreamIcSt11char_traitsIcESaIcEEESt14default_deleteIS5_EE6_M_ptrEv
FN:201,201,_ZNSt15__uniq_ptr_implINSt7__cxx1112basic_stringIcSt11char_traitsIcESaIcEEESt14default_deleteIS5_EE10_M_deleterEv
FN:201,201,_ZNSt15__uniq_ptr_implINSt7__cxx1118basic_stringstreamIcSt11char_traitsIcESaIcEEESt14default_deleteIS5_EE10_M_deleterEv
FN:206,212,_ZNSt15__uniq_ptr_implINSt7__cxx1112basic_stringIcSt11char_traitsIcESaIcEEESt14default_deleteIS5_EE5resetEPS5_
FN:215,220,_ZNSt15__uniq_ptr_implINSt7__cxx1112basic_stringIcSt11char_traitsIcESaIcEEESt14default_deleteIS5_EE7releaseEv
FN:243,243,_ZNSt15__uniq_ptr_dataINSt7__cxx1112basic_stringIcSt11char_traitsIcESaIcEEESt14default_deleteIS5_ELb1ELb1EEaSEOS8_
FN:317,319,_ZNSt10unique_ptrINSt7__cxx1112basic_stringIcSt11char_traitsIcESaIcEEESt14default_deleteIS5_EEC2IS7_vEEPS5_
FN:398,406,_ZNSt10unique_ptrINSt7__cxx1112basic_stringIcSt11char_traitsIcESaIcEEESt14default_deleteIS5_EED2Ev
FN:398,406,_ZNSt10unique_ptrINSt7__cxx1118basic_stringstreamIcSt11char_traitsIcESaIcEEESt14default_deleteIS5_EED2Ev
FN:414,414,_ZNSt10unique_ptrINSt7__cxx1112basic_stringIcSt11char_traitsIcESaIcEEESt14default_deleteIS5_EEaSEOS8_
FN:451,455,_ZNKSt10unique_ptrINSt7__cxx1118basic_stringstreamIcSt11char_traitsIcESaIcEEESt14default_deleteIS5_EEdeEv
FN:460,464,_ZNKSt10unique_ptrINSt7__cxx1112basic_stringIcSt11char_traitsIcESaIcEEESt14default_deleteIS5_EEptEv
FN:469,470,_ZNKSt10unique_ptrINSt7__cxx1112basic_stringIcSt11char_traitsIcESaIcEEESt14default_deleteIS5_EE3getEv
FN:469,470,_ZNKSt10unique_ptrINSt7__cxx1118basic_stringstreamIcSt11char_traitsIcESaIcEEESt14default_deleteIS5_EE3getEv
FN:475,476,_ZNSt10unique_ptrINSt7__cxx1112basic_stringIcSt11char_traitsIcESaIcEEESt14default_deleteIS5_EE11get_deleterEv
FN:475,476,_ZNSt10unique_ptrINSt7__cxx1118basic_stringstreamIcSt11char_traitsIcESaIcEEESt14default_deleteIS5_EE11get_deleterEv
FN:486,487,_ZNKSt10unique_ptrINSt7__cxx1112basic_stringIcSt11char_traitsIcESaIcEEESt14default_deleteIS5_EEcvbEv
FN:837,838,_ZSteqINSt7__cxx1112basic_stringIcSt11char_traitsIcESaIcEEESt14default_deleteIS5_EEbRKSt10unique_ptrIT_T0_EDn
FN:93,100,_ZNKSt14default_deleteINSt7__cxx1112basic_stringIcSt11char_traitsIcESaIcEEEEclEPS5_
FN:93,100,_ZNKSt14default_deleteINSt7__cxx1118basic_stringstreamIcSt11char_traitsIcESaIcEEEEclEPS5_
FNDA:0,_ZSt11make_uniqueINSt7__cxx1112basic_stringIcSt11char_traitsIcESaIcEEEJEENSt8__detail9_MakeUniqIT_E15__single_objectEDpOT0_
FNDA:0,_ZNSt15__uniq_ptr_implINSt7__cxx1112basic_stringIcSt11char_traitsIcESaIcEEESt14default_deleteIS5_EEC2EPS5_
FNDA:0,_ZNSt15__uniq_ptr_implINSt7__cxx1112basic_stringIcSt11char_traitsIcESaIcEEESt14default_deleteIS5_EEaSEOS8_
FNDA:23,_ZNSt15__uniq_ptr_implINSt7__cxx1112basic_stringIcSt11char_traitsIcESaIcEEESt14default_deleteIS5_EE6_M_ptrEv
FNDA:0,_ZNSt15__uniq_ptr_implINSt7__cxx1118basic_stringstreamIcSt11char_traitsIcESaIcEEESt14default_deleteIS5_EE6_M_ptrEv
FNDA:0,_ZNKSt15__uniq_ptr_implINSt7__cxx1112basic_stringIcSt11char_traitsIcESaIcEEESt14default_deleteIS5_EE6_M_ptrEv
FNDA:0,_ZNKSt15__uniq_ptr_implINSt7__cxx1118basic_stringstreamIcSt11char_traitsIcESaIcEEESt14default_deleteIS5_EE6_M_ptrEv
FNDA:0,_ZNSt15__uniq_ptr_implINSt7__cxx1112basic_stringIcSt11char_traitsIcESaIcEEESt14default_deleteIS5_EE10_M_deleterEv
FNDA:0,_ZNSt15__uniq_ptr_implINSt7__cxx1118basic_stringstreamIcSt11char_traitsIcESaIcEEESt14default_deleteIS5_EE10_M_deleterEv
FNDA:0,_ZNSt15__uniq_ptr_implINSt7__cxx1112basic_stringIcSt11char_traitsIcESaIcEEESt14default_deleteIS5_EE5resetEPS5_
FNDA:0,_ZNSt15__uniq_ptr_implINSt7__cxx1112basic_stringIcSt11char_traitsIcESaIcEEESt14default_deleteIS5_EE7releaseEv
FNDA:0,_ZNSt15__uniq_ptr_dataINSt7__cxx1112basic_stringIcSt11char_traitsIcESaIcEEESt14default_deleteIS5_ELb1ELb1EEaSEOS8_
FNDA:0,_ZNSt10unique_ptrINSt7__cxx1112basic_stringIcSt11char_traitsIcESaIcEEESt14default_deleteIS5_EEC2IS7_vEEPS5_
FNDA:23,_ZNSt10unique_ptrINSt7__cxx1112basic_stringIcSt11char_traitsIcESaIcEEESt14default_deleteIS5_EED2Ev
FNDA:0,_ZNSt10unique_ptrINSt7__cxx1118basic_stringstreamIcSt11char_traitsIcESaIcEEESt14default_deleteIS5_EED2Ev
FNDA:0,_ZNSt10unique_ptrINSt7__cxx1112basic_stringIcSt11char_traitsIcESaIcEEESt14default_deleteIS5_EEaSEOS8_
FNDA:0,_ZNKSt10unique_ptrINSt7__cxx1118basic_stringstreamIcSt11char_traitsIcESaIcEEESt14default_deleteIS5_EEdeEv
FNDA:0,_ZNKSt10unique_ptrINSt7__cxx1112basic_stringIcSt11char_traitsIcESaIcEEESt14default_deleteIS5_EEptEv
FNDA:0,_ZNKSt10unique_ptrINSt7__cxx1112basic_stringIcSt11char_traitsIcESaIcEEESt14default_deleteIS5_EE3getEv
FNDA:0,_ZNKSt10unique_ptrINSt7__cxx1118basic_stringstreamIcSt11char_traitsIcESaIcEEESt14default_deleteIS5_EE3getEv
FNDA:0,_ZNSt10unique_ptrINSt7__cxx1112basic_stringIcSt11char_traitsIcESaIcEEESt14default_deleteIS5_EE11get_deleterEv
FNDA:0,_ZNSt10unique_ptrINSt7__cxx1118basic_stringstreamIcSt11char_traitsIcESaIcEEESt14default_deleteIS5_EE11get_deleterEv
FNDA:0,_ZNKSt10unique_ptrINSt7__cxx1112basic_stringIcSt11char_traitsIcESaIcEEESt14default_deleteIS5_EEcvbEv
FNDA:0,_ZSteqINSt7__cxx1112basic_stringIcSt11char_traitsIcESaIcEEESt14default_deleteIS5_EEbRKSt10unique_ptrIT_T0_EDn
FNDA:0,_ZNKSt14default_deleteINSt7__cxx1112basic_stringIcSt11char_traitsIcESaIcEEEEclEPS5_
FNDA:0,_ZNKSt14default_deleteINSt7__cxx1118basic_stringstreamIcSt11char_traitsIcESaIcEEEEclEPS5_
FNF:26
FNH:2
DA:93,0
DA:99,0
DA:100,0
DA:176,0
DA:189,0
DA:191,0
DA:192,0
DA:193,0
DA:197,23
DA:199,0
DA:201,0
DA:206,0
DA:208,0
DA:209,0
DA:210,0
DA:211,0
DA:212,0
DA:215,0
DA:217,0
DA:218,0
DA:219,0
DA:243,0
DA:317,0
DA:318,0
DA:319,0
DA:398,23
DA:402,23
DA:403,23
DA:404,0
DA:405,23
DA:406,23
DA:414,0
DA:451,0
DA:453,0
DA:454,0
DA:460,0
DA:463,0
DA:469,0
DA:470,0
DA:475,0
DA:476,0
DA:486,0
DA:487,0
DA:837,0
DA:838,0
DA:1069,0
DA:1070,0
LF:47
LH:6
end_of_record
TN:
SF:/usr/include/c++/13/ext/alloc_traits.h
FNF:0
FNH:0
DA:98,19
LF:1
LH:1
end_of_record
TN:
SF:/usr/include/c++/13/new
FN:174,175,_ZnwmPv
FNDA:4,_ZnwmPv
FNF:1
FNH:1
DA:174,4
DA:175,4
LF:2
LH:2
end_of_record
TN:
SF:/usr/include/c++/13/tuple
FN:125,125,_ZNSt10_Head_baseILm1ESt14default_deleteINSt7__cxx1112basic_stringIcSt11char_traitsIcESaIcEEEELb1EE7_M_headERS8_
FN:125,125,_ZNSt10_Head_baseILm1ESt14default_deleteINSt7__cxx1118basic_stringstreamIcSt11char_traitsIcESaIcEEEELb1EE7_M_headERS8_
FN:1317,1319,_ZNSt5tupleIJPNSt7__cxx1112basic_stringIcSt11char_traitsIcESaIcEEESt14default_deleteIS5_EEEC2ILb1ELb1EEEv
FN:1787,1788,_ZSt12__get_helperILm0EPNSt7__cxx1112basic_stringIcSt11char_traitsIcESaIcEEEJSt14default_deleteIS5_EEERT0_RSt11_Tuple_implIXT_EJS9_DpT1_EE
FN:1787,1788,_ZSt12__get_helperILm0EPNSt7__cxx1118basic_stringstreamIcSt11char_traitsIcESaIcEEEJSt14default_deleteIS5_EEERT0_RSt11_Tuple_implIXT_EJS9_DpT1_EE
FN:1787,1788,_ZSt12__get_helperILm1ESt14default_deleteINSt7__cxx1112basic_stringIcSt11char_traitsIcESaIcEEEEJEERT0_RSt11_Tuple_implIXT_EJS8_DpT1_EE
FN:1787,1788,_ZSt12__get_helperILm1ESt14default_deleteINSt7__cxx1118basic_stringstreamIcSt11char_traitsIcESaIcEEEEJEERT0_RSt11_Tuple_implIXT_EJS8_DpT1_EE
FN:1792,1793,_ZSt12__get_helperILm0EPNSt7__cxx1112basic_stringIcSt11char_traitsIcESaIcEEEJSt14default_deleteIS5_EEERKT0_RKSt11_Tuple_implIXT_EJS9_DpT1_EE
FN:1792,1793,_ZSt12__get_helperILm0EPNSt7__cxx1118basic_stringstreamIcSt11char_traitsIcESaIcEEEJSt14default_deleteIS5_EEERKT0_RKSt11_Tuple_implIXT_EJS9_DpT1_EE
FN:1803,1804,_ZSt3getILm0EJPNSt7__cxx1112basic_stringIcSt11char_traitsIcESaIcEEESt14default_deleteIS5_EEERNSt13tuple_elementIXT_ESt5tupleIJDpT0_EEE4typeERSD_
FN:1803,1804,_ZSt3getILm0EJPNSt7__cxx1118basic_stringstreamIcSt11char_traitsIcESaIcEEESt14default_deleteIS5_EEERNSt13tuple_elementIXT_ESt5tupleIJDpT0_EEE4typeERSD_
FN:1803,1804,_ZSt3getILm1EJPNSt7__cxx1112basic_stringIcSt11char_traitsIcESaIcEEESt14default_deleteIS5_EEERNSt13tuple_elementIXT_ESt5tupleIJDpT0_EEE4typeERSD_
FN:1803,1804,_ZSt3getILm1EJPNSt7__cxx1118basic_stringstreamIcSt11char_traitsIcESaIcEEESt14default_deleteIS5_EEERNSt13tuple_elementIXT_ESt5tupleIJDpT0_EEE4typeERSD_
FN:1809,1810,_ZSt3getILm0EJPNSt7__cxx1112basic_stringIcSt11char_traitsIcESaIcEEESt14default_deleteIS5_EEERKNSt13tuple_elementIXT_ESt5tupleIJDpT0_EEE4typeERKSD_
FN:1809,1810,_ZSt3getILm0EJPNSt7__cxx1118basic_stringstreamIcSt11char_traitsIcESaIcEEESt14default_deleteIS5_EEERKNSt13tuple_elementIXT_ESt5tupleIJDpT0_EEE4typeERKSD_
FN:190,191,_ZNSt10_Head_baseILm0EPNSt7__cxx1112basic_stringIcSt11char_traitsIcESaIcEEELb0EEC2Ev
FN:234,234,_ZNSt10_Head_baseILm0EPNSt7__cxx1112basic_stringIcSt11char_traitsIcESaIcEEELb0EE7_M_headERS7_
FN:234,234,_ZNSt10_Head_baseILm0EPNSt7__cxx1118basic_stringstreamIcSt11char_traitsIcESaIcEEELb0EE7_M_headERS7_
FN:237,237,_ZNSt10_Head_baseILm0EPNSt7__cxx1112basic_stringIcSt11char_traitsIcESaIcEEELb0EE7_M_headERKS7_
FN:237,237,_ZNSt10_Head_baseILm0EPNSt7__cxx1118basic_stringstreamIcSt11char_traitsIcESaIcEEELb0EE7_M_headERKS7_
FN:269,269,_ZNSt11_Tuple_implILm0EJPNSt7__cxx1112basic_stringIcSt11char_traitsIcESaIcEEESt14default_deleteIS5_EEE7_M_headERS9_
FN:269,269,_ZNSt11_Tuple_implILm0EJPNSt7__cxx1118basic_stringstreamIcSt11char_traitsIcESaIcEEESt14default_deleteIS5_EEE7_M_headERS9_
FN:272,272,_ZNSt11_Tuple_implILm0EJPNSt7__cxx1112basic_stringIcSt11char_traitsIcESaIcEEESt14default_deleteIS5_EEE7_M_headERKS9_
FN:272,272,_ZNSt11_Tuple_implILm0EJPNSt7__cxx1118basic_stringstreamIcSt11char_traitsIcESaIcEEESt14default_deleteIS5_EEE7_M_headERKS9_
FN:280,281,_ZNSt11_Tuple_implILm0EJPNSt7__cxx1112basic_stringIcSt11char_traitsIcESaIcEEESt14default_deleteIS5_EEEC2Ev
FN:497,497,_ZNSt11_Tuple_implILm1EJSt14default_deleteINSt7__cxx1112basic_stringIcSt11char_traitsIcESaIcEEEEEE7_M_headERS8_
FN:497,497,_ZNSt11_Tuple_implILm1EJSt14default_deleteINSt7__cxx1118basic_stringstreamIcSt11char_traitsIcESaIcEEEEEE7_M_headERS8_
FN:503,504,_ZNSt11_Tuple_implILm1EJSt14default_deleteINSt7__cxx1112basic_stringIcSt11char_traitsIcESaIcEEEEEEC2Ev
FN:81,82,_ZNSt10_Head_baseILm1ESt14default_deleteINSt7__cxx1112basic_stringIcSt11char_traitsIcESaIcEEEELb1EEC2Ev
FNDA:0,_ZNSt10_Head_baseILm1ESt14default_deleteINSt7__cxx1112basic_stringIcSt11char_traitsIcESaIcEEEELb1EE7_M_headERS8_
FNDA:0,_ZNSt10_Head_baseILm1ESt14default_deleteINSt7__cxx1118basic_stringstreamIcSt11char_traitsIcESaIcEEEELb1EE7_M_headERS8_
FNDA:0,_ZNSt5tupleIJPNSt7__cxx1112basic_stringIcSt11char_traitsIcESaIcEEESt14default_deleteIS5_EEEC2ILb1ELb1EEEv
FNDA:23,_ZSt12__get_helperILm0EPNSt7__cxx1112basic_stringIcSt11char_traitsIcESaIcEEEJSt14default_deleteIS5_EEERT0_RSt11_Tuple_implIXT_EJS9_DpT1_EE
FNDA:0,_ZSt12__get_helperILm0EPNSt7__cxx1118basic_stringstreamIcSt11char_traitsIcESaIcEEEJSt14default_deleteIS5_EEERT0_RSt11_Tuple_implIXT_EJS9_DpT1_EE
FNDA:0,_ZSt12__get_helperILm1ESt14default_deleteINSt7__cxx1112basic_stringIcSt11char_traitsIcESaIcEEEEJEERT0_RSt11_Tuple_implIXT_EJS8_DpT1_EE
FNDA:0,_ZSt12__get_helperILm1ESt14default_deleteINSt7__cxx1118basic_stringstreamIcSt11char_traitsIcESaIcEEEEJEERT0_RSt11_Tuple_implIXT_EJS8_DpT1_EE
FNDA:0,_ZSt12__get_helperILm0EPNSt7__cxx1112basic_stringIcSt11char_traitsIcESaIcEEEJSt14default_deleteIS5_EEERKT0_RKSt11_Tuple_implIXT_EJS9_DpT1_EE
FNDA:0,_ZSt12__get_helperILm0EPNSt7__cxx1118basic_stringstreamIcSt11char_traitsIcESaIcEEEJSt14default_deleteIS5_EEERKT0_RKSt11_Tuple_implIXT_EJS9_DpT1_EE
FNDA:23,_ZSt3getILm0EJPNSt7__cxx1112basic_stringIcSt11char_traitsIcESaIcEEESt14default_deleteIS5_EEERNSt13tuple_elementIXT_ESt5tupleIJDpT0_EEE4typeERSD_
FNDA:0,_ZSt3getILm0EJPNSt7__cxx1118basic_stringstreamIcSt11char_traitsIcESaIcEEESt14default_deleteIS5_EEERNSt13tuple_elementIXT_ESt5tupleIJDpT0_EEE4typeERSD_
FNDA:0,_ZSt3getILm1EJPNSt7__cxx1112basic_stringIcSt11char_traitsIcESaIcEEESt14default_deleteIS5_EEERNSt13tuple_elementIXT_ESt5tupleIJDpT0_EEE4typeERSD_
FNDA:0,_ZSt3getILm1EJPNSt7__cxx1118basic_stringstreamIcSt11char_traitsIcESaIcEEESt14default_deleteIS5_EEERNSt13tuple_elementIXT_ESt5tupleIJDpT0_EEE4typeERSD_
FNDA:0,_ZSt3getILm0EJPNSt7__cxx1112basic_stringIcSt11char_traitsIcESaIcEEESt14default_deleteIS5_EEERKNSt13tuple_elementIXT_ESt5tupleIJDpT0_EEE4typeERKSD_
FNDA:0,_ZSt3getILm0EJPNSt7__cxx1118basic_stringstreamIcSt11char_traitsIcESaIcEEESt14default_deleteIS5_EEERKNSt13tuple_elementIXT_ESt5tupleIJDpT0_EEE4typeERKSD_
FNDA:0,_ZNSt10_Head_baseILm0EPNSt7__cxx1112basic_stringIcSt11char_traitsIcESaIcEEELb0EEC2Ev
FNDA:23,_ZNSt10_Head_baseILm0EPNSt7__cxx1112basic_stringIcSt11char_traitsIcESaIcEEELb0EE7_M_headERS7_
FNDA:0,_ZNSt10_Head_baseILm0EPNSt7__cxx1118basic_stringstreamIcSt11char_traitsIcESaIcEEELb0EE7_M_headERS7_
FNDA:0,_ZNSt10_Head_baseILm0EPNSt7__cxx1112basic_stringIcSt11char_traitsIcESaIcEEELb0EE7_M_headERKS7_
FNDA:0,_ZNSt10_Head_baseILm0EPNSt7__cxx1118basic_stringstreamIcSt11char_traitsIcESaIcEEELb0EE7_M_headERKS7_
FNDA:23,_ZNSt11_Tuple_implILm0EJPNSt7__cxx1112basic_stringIcSt11char_traitsIcESaIcEEESt14default_deleteIS5_EEE7_M_headERS9_
FNDA:0,_ZNSt11_Tuple_implILm0EJPNSt7__cxx1118basic_stringstreamIcSt11char_traitsIcESaIcEEESt14default_deleteIS5_EEE7_M_headERS9_
FNDA:0,_ZNSt11_Tuple_implILm0EJPNSt7__cxx1112basic_stringIcSt11char_traitsIcESaIcEEESt14default_deleteIS5_EEE7_M_headERKS9_
FNDA:0,_ZNSt11_Tuple_implILm0EJPNSt7__cxx1118basic_stringstreamIcSt11char_traitsIcESaIcEEESt14default_deleteIS5_EEE7_M_headERKS9_
FNDA:0,_ZNSt11_Tuple_implILm0EJPNSt7__cxx1112basic_stringIcSt11char_traitsIcESaIcEEESt14default_deleteIS5_EEEC2Ev
FNDA:0,_ZNSt11_Tuple_implILm1EJSt14default_deleteINSt7__cxx1112basic_stringIcSt11char_traitsIcESaIcEEEEEE7_M_headERS8_
FNDA:0,_ZNSt11_Tuple_implILm1EJSt14default_deleteINSt7__cxx1118basic_stringstreamIcSt11char_traitsIcESaIcEEEEEE7_M_headERS8_
FNDA:0,_ZNSt11_Tuple_implILm1EJSt14default_deleteINSt7__cxx1112basic_stringIcSt11char_traitsIcESaIcEEEEEEC2Ev
FNDA:0,_ZNSt10_Head_baseILm1ESt14default_deleteINSt7__cxx1112basic_stringIcSt11char_traitsIcESaIcEEEELb1EEC2Ev
FNF:29
FNH:4
DA:81,0
DA:82,0
DA:125,0
DA:190,0
DA:191,0
DA:234,23
DA:237,0
DA:269,23
DA:272,0
DA:280,0
DA:281,0
DA:497,0
DA:503,0
DA:504,0
DA:1317,0
DA:1319,0
DA:1787,23
DA:1788,23
DA:1792,0
DA:1793,0
DA:1803,23
DA:1804,23
DA:1809,0
DA:1810,0
LF:24
LH:6
end_of_record
TN:
SF:/usr/include/c++/13/type_traits
FN:3649,3656,_ZSt21is_constant_evaluatedv
FNDA:1,_ZSt21is_constant_evaluatedv
FNF:1
FNH:1
DA:3649,1
DA:3654,1
LF:2
LH:2
end_of_record
TN:
SF:/usr/include/gtest/gtest-assertion-result.h
FN:174,174,_ZNK7testing15AssertionResultcvbEv
FN:183,185,_ZNK7testing15AssertionResult7messageEv
FN:187,187,_ZNK7testing15AssertionResult15failure_messageEv
FN:191,194,_ZN7testing15AssertionResultlsIA12_cEERS0_RKT_
FN:191,194,_ZN7testing15AssertionResultlsIA3_cEERS0_RKT_
FN:191,194,_ZN7testing15AssertionResultlsIA5_cEERS0_RKT_
FN:191,194,_ZN7testing15AssertionResultlsINSt7__cxx1112basic_stringIcSt11char_traitsIcESaIcEEEEERS0_RKT_
FN:191,194,_ZN7testing15AssertionResultlsIPKcEERS0_RKT_
FN:206,209,_ZN7testing15AssertionResult13AppendMessageERKNS_7MessageE
FNDA:23,_ZNK7testing15AssertionResultcvbEv
FNDA:0,_ZNK7testing15AssertionResult7messageEv
FNDA:0,_ZNK7testing15AssertionResult15failure_messageEv
FNDA:0,_ZN7testing15AssertionResultlsIA12_cEERS0_RKT_
FNDA:0,_ZN7testing15AssertionResultlsIA3_cEERS0_RKT_
FNDA:0,_ZN7testing15AssertionResultlsIA5_cEERS0_RKT_
FNDA:0,_ZN7testing15AssertionResultlsINSt7__cxx1112basic_stringIcSt11char_traitsIcESaIcEEEEERS0_RKT_
FNDA:0,_ZN7testing15AssertionResultlsIPKcEERS0_RKT_
FNDA:0,_ZN7testing15AssertionResult13AppendMessageERKNS_7MessageE
FNF:9
FNH:1
DA:174,23
DA:183,0
DA:184,0
DA:187,0
DA:191,0
DA:192,0
DA:193,0
DA:206,0
DA:207,0
DA:208,0
DA:209,0
LF:11
LH:1
end_of_record
TN:
SF:/usr/include/gtest/gtest-message.h
FN:132,150,_ZN7testing7MessagelsIA12_cEERS0_RKT_
FN:132,150,_ZN7testing7MessagelsIA3_cEERS0_RKT_
FN:132,150,_ZN7testing7MessagelsIA5_cEERS0_RKT_
FN:132,150,_ZN7testing7MessagelsINSt7__cxx1112basic_stringIcSt11char_traitsIcESaIcEEEEERS0_RKT_
FN:182,189,_ZN7testing7MessagelsIKcEERS0_RKPT_
FNDA:0,_ZN7testing7MessagelsIA12_cEERS0_RKT_
FNDA:0,_ZN7testing7MessagelsIA3_cEERS0_RKT_
FNDA:0,_ZN7testing7MessagelsIA5_cEERS0_RKT_
FNDA:0,_ZN7testing7MessagelsINSt7__cxx1112basic_stringIcSt11char_traitsIcESaIcEEEEERS0_RKT_
FNDA:0,_ZN7testing7MessagelsIKcEERS0_RKPT_
FNF:5
FNH:0
DA:132,0
DA:148,0
DA:149,0
DA:182,0
DA:183,0
DA:184,0
DA:186,0
DA:188,0
LF:8
LH:0
end_of_record
TN:
SF:/usr/include/gtest/gtest-printers.h
FN:1108,1113,_ZN7testing8internal14UniversalPrintI9GameStateEEvRKT_PSo
FN:1108,1113,_ZN7testing8internal14UniversalPrintIDnEEvRKT_PSo
FN:1108,1113,_ZN7testing8internal14UniversalPrintIPN3s215ModelEEEvRKT_PSo
FN:1108,1113,_ZN7testing8internal14UniversalPrintIPPiEEvRKT_PSo
FN:1108,1113,_ZN7testing8internal14UniversalPrintIbEEvRKT_PSo
FN:1108,1113,_ZN7testing8internal14UniversalPrintIiEEvRKT_PSo
FN:1148,1152,_ZN7testing13PrintToStringI9GameStateEENSt7__cxx1112basic_stringIcSt11char_traitsIcESaIcEEERKT_
FN:1148,1152,_ZN7testing13PrintToStringIDnEENSt7__cxx1112basic_stringIcSt11char_traitsIcESaIcEEERKT_
FN:1148,1152,_ZN7testing13PrintToStringIPN3s215ModelEEENSt7__cxx1112basic_stringIcSt11char_traitsIcESaIcEEERKT_
FN:1148,1152,_ZN7testing13PrintToStringIPPiEENSt7__cxx1112basic_stringIcSt11char_traitsIcESaIcEEERKT_
FN:1148,1152,_ZN7testing13PrintToStringIbEENSt7__cxx1112basic_stringIcSt11char_traitsIcESaIcEEERKT_
FN:1148,1152,_ZN7testing13PrintToStringIiEENSt7__cxx1112basic_stringIcSt11char_traitsIcESaIcEEERKT_
FN:190,199,_ZN7testing8internal14PointerPrinter10PrintValueIN3s215ModelEEEvPT_PSo
FN:190,199,_ZN7testing8internal14PointerPrinter10PrintValueIPiEEvPT_PSo
FN:221,226,_ZN7testing8internal52internal_stream_operator_without_lexical_name_lookup13StreamPrinter10PrintValueI9GameStatevEEDTcvvlsdefp0_fp_ERKT_PSo
FN:221,226,_ZN7testing8internal52internal_stream_operator_without_lexical_name_lookup13StreamPrinter10PrintValueIivEEDTcvvlsdefp0_fp_ERKT_PSo
FN:326,337,_ZN7testing8internal17PrintWithFallbackI9GameStateEEvRKT_PSo
FN:326,337,_ZN7testing8internal17PrintWithFallbackIPN3s215ModelEEEvRKT_PSo
FN:326,337,_ZN7testing8internal17PrintWithFallbackIPPiEEvRKT_PSo
FN:326,337,_ZN7testing8internal17PrintWithFallbackIiEEvRKT_PSo
FN:357,359,_ZN7testing8internal19FormatForComparisonI9GameStateiE6FormatB5cxx11ERKS2_
FN:357,359,_ZN7testing8internal19FormatForComparisonIDnPPiE6FormatB5cxx11ERKDn
FN:357,359,_ZN7testing8internal19FormatForComparisonIPN3s215ModelES4_E6FormatB5cxx11ERKS4_
FN:357,359,_ZN7testing8internal19FormatForComparisonIPPiDnE6FormatB5cxx11ERKS3_
FN:357,359,_ZN7testing8internal19FormatForComparisonIbbE6FormatB5cxx11ERKb
FN:357,359,_ZN7testing8internal19FormatForComparisonIi9GameStateE6FormatB5cxx11ERKi
FN:357,359,_ZN7testing8internal19FormatForComparisonIiiE6FormatB5cxx11ERKi
FN:437,440,_ZN7testing8internal33FormatForComparisonFailureMessageI9GameStateiEENSt7__cxx1112basic_stringIcSt11char_traitsIcESaIcEEERKT_RKT0_
FN:437,440,_ZN7testing8internal33FormatForComparisonFailureMessageIDnPPiEENSt7__cxx1112basic_stringIcSt11char_traitsIcESaIcEEERKT_RKT0_
FN:437,440,_ZN7testing8internal33FormatForComparisonFailureMessageIPN3s215ModelES4_EENSt7__cxx1112basic_stringIcSt11char_traitsIcESaIcEEERKT_RKT0_
FN:437,440,_ZN7testing8internal33FormatForComparisonFailureMessageIPPiDnEENSt7__cxx1112basic_stringIcSt11char_traitsIcESaIcEEERKT_RKT0_
FN:437,440,_ZN7testing8internal33FormatForComparisonFailureMessageIbbEENSt7__cxx1112basic_stringIcSt11char_traitsIcESaIcEEERKT_RKT0_
FN:437,440,_ZN7testing8internal33FormatForComparisonFailureMessageIi9GameStateEENSt7__cxx1112basic_stringIcSt11char_traitsIcESaIcEEERKT_RKT0_
FN:437,440,_ZN7testing8internal33FormatForComparisonFailureMessageIiiEENSt7__cxx1112basic_stringIcSt11char_traitsIcESaIcEEERKT_RKT0_
FN:464,466,_ZN7testing8internal7PrintToI9GameStateEEvRKT_PSo
FN:464,466,_ZN7testing8internal7PrintToIPN3s215ModelEEEvRKT_PSo
FN:464,466,_ZN7testing8internal7PrintToIPPiEEvRKT_PSo
FN:464,466,_ZN7testing8internal7PrintToIiEEvRKT_PSo
FN:483,485,_ZN7testing8internal7PrintToEbPSo
FN:699,699,_ZN7testing8internal7PrintToEDnPSo
FN:799,809,_ZN7testing8internal16UniversalPrinterI9GameStateE5PrintERKS2_PSo
FN:799,809,_ZN7testing8internal16UniversalPrinterIDnE5PrintERKDnPSo
FN:799,809,_ZN7testing8internal16UniversalPrinterIPN3s215ModelEE5PrintERKS4_PSo
FN:799,809,_ZN7testing8internal16UniversalPrinterIPPiE5PrintERKS3_PSo
FN:799,809,_ZN7testing8internal16UniversalPrinterIbE5PrintERKbPSo
FN:799,809,_ZN7testing8internal16UniversalPrinterIiE5PrintERKiPSo
FN:989,991,_ZN7testing8internal21UniversalTersePrinterI9GameStateE5PrintERKS2_PSo
FN:989,991,_ZN7testing8internal21UniversalTersePrinterIDnE5PrintERKDnPSo
FN:989,991,_ZN7testing8internal21UniversalTersePrinterIPN3s215ModelEE5PrintERKS4_PSo
FN:989,991,_ZN7testing8internal21UniversalTersePrinterIPPiE5PrintERKS3_PSo
FN:989,991,_ZN7testing8internal21UniversalTersePrinterIbE5PrintERKbPSo
FN:989,991,_ZN7testing8internal21UniversalTersePrinterIiE5PrintERKiPSo
FNDA:0,_ZN7testing8internal14UniversalPrintI9GameStateEEvRKT_PSo
FNDA:0,_ZN7testing8internal14UniversalPrintIDnEEvRKT_PSo
FNDA:0,_ZN7testing8internal14UniversalPrintIPN3s215ModelEEEvRKT_PSo
FNDA:0,_ZN7testing8internal14UniversalPrintIPPiEEvRKT_PSo
FNDA:0,_ZN7testing8internal14UniversalPrintIbEEvRKT_PSo
FNDA:0,_ZN7testing8internal14UniversalPrintIiEEvRKT_PSo
FNDA:0,_ZN7testing13PrintToStringI9GameStateEENSt7__cxx1112basic_stringIcSt11char_traitsIcESaIcEEERKT_
FNDA:0,_ZN7testing13PrintToStringIDnEENSt7__cxx1112basic_stringIcSt11char_traitsIcESaIcEEERKT_
FNDA:0,_ZN7testing13PrintToStringIPN3s215ModelEEENSt7__cxx1112basic_stringIcSt11char_traitsIcESaIcEEERKT_
FNDA:0,_ZN7testing13PrintToStringIPPiEENSt7__cxx1112basic_stringIcSt11char_traitsIcESaIcEEERKT_
FNDA:0,_ZN7testing13PrintToStringIbEENSt7__cxx1112basic_stringIcSt11char_traitsIcESaIcEEERKT_
FNDA:0,_ZN7testing13PrintToStringIiEENSt7__cxx1112basic_stringIcSt11char_traitsIcESaIcEEERKT_
FNDA:0,_ZN7testing8internal14PointerPrinter10PrintValueIN3s215ModelEEEvPT_PSo
FNDA:0,_ZN7testing8internal14PointerPrinter10PrintValueIPiEEvPT_PSo
FNDA:0,_ZN7testing8internal52internal_stream_operator_without_lexical_name_lookup13StreamPrinter10PrintValueI9GameStatevEEDTcvvlsdefp0_fp_ERKT_PSo
FNDA:0,_ZN7testing8internal52internal_stream_operator_without_lexical_name_lookup13StreamPrinter10PrintValueIivEEDTcvvlsdefp0_fp_ERKT_PSo
FNDA:0,_ZN7testing8internal17PrintWithFallbackI9GameStateEEvRKT_PSo
FNDA:0,_ZN7testing8internal17PrintWithFallbackIPN3s215ModelEEEvRKT_PSo
FNDA:0,_ZN7testing8internal17PrintWithFallbackIPPiEEvRKT_PSo
FNDA:0,_ZN7testing8internal17PrintWithFallbackIiEEvRKT_PSo
FNDA:0,_ZN7testing8internal19FormatForComparisonI9GameStateiE6FormatB5cxx11ERKS2_
FNDA:0,_ZN7testing8internal19FormatForComparisonIDnPPiE6FormatB5cxx11ERKDn
FNDA:0,_ZN7testing8internal19FormatForComparisonIPN3s215ModelES4_E6FormatB5cxx11ERKS4_
FNDA:0,_ZN7testing8internal19FormatForComparisonIPPiDnE6FormatB5cxx11ERKS3_
FNDA:0,_ZN7testing8internal19FormatForComparisonIbbE6FormatB5cxx11ERKb
FNDA:0,_ZN7testing8internal19FormatForComparisonIi9GameStateE6FormatB5cxx11ERKi
FNDA:0,_ZN7testing8internal19FormatForComparisonIiiE6FormatB5cxx11ERKi
FNDA:0,_ZN7testing8internal33FormatForComparisonFailureMessageI9GameStateiEENSt7__cxx1112basic_stringIcSt11char_traitsIcESaIcEEERKT_RKT0_
FNDA:0,_ZN7testing8internal33FormatForComparisonFailureMessageIDnPPiEENSt7__cxx1112basic_stringIcSt11char_traitsIcESaIcEEERKT_RKT0_
FNDA:0,_ZN7testing8internal33FormatForComparisonFailureMessageIPN3s215ModelES4_EENSt7__cxx1112basic_stringIcSt11char_traitsIcESaIcEEERKT_RKT0_
FNDA:0,_ZN7testing8internal33FormatForComparisonFailureMessageIPPiDnEENSt7__cxx1112basic_stringIcSt11char_traitsIcESaIcEEERKT_RKT0_
FNDA:0,_ZN7testing8internal33FormatForComparisonFailureMessageIbbEENSt7__cxx1112basic_stringIcSt11char_traitsIcESaIcEEERKT_RKT0_
FNDA:0,_ZN7testing8internal33FormatForComparisonFailureMessageIi9GameStateEENSt7__cxx1112basic_stringIcSt11char_traitsIcESaIcEEERKT_RKT0_
FNDA:0,_ZN7testing8internal33FormatForComparisonFailureMessageIiiEENSt7__cxx1112basic_stringIcSt11char_traitsIcESaIcEEERKT_RKT0_
FNDA:0,_ZN7testing8internal7PrintToI9GameStateEEvRKT_PSo
FNDA:0,_ZN7testing8internal7PrintToIPN3s215ModelEEEvRKT_PSo
FNDA:0,_ZN7testing8internal7PrintToIPPiEEvRKT_PSo
FNDA:0,_ZN7testing8internal7PrintToIiEEvRKT_PSo
FNDA:0,_ZN7testing8internal7PrintToEbPSo
FNDA:0,_ZN7testing8internal7PrintToEDnPSo
FNDA:0,_ZN7testing8internal16UniversalPrinterI9GameStateE5PrintERKS2_PSo
FNDA:0,_ZN7testing8internal16UniversalPrinterIDnE5PrintERKDnPSo
FNDA:0,_ZN7testing8internal16UniversalPrinterIPN3s215ModelEE5PrintERKS4_PSo
FNDA:0,_ZN7testing8internal16UniversalPrinterIPPiE5PrintERKS3_PSo
FNDA:0,_ZN7testing8internal16UniversalPrinterIbE5PrintERKbPSo
FNDA:0,_ZN7testing8internal16UniversalPrinterIiE5PrintERKiPSo
FNDA:0,_ZN7testing8internal21UniversalTersePrinterI9GameStateE5PrintERKS2_PSo
FNDA:0,_ZN7testing8internal21UniversalTersePrinterIDnE5PrintERKDnPSo
FNDA:0,_ZN7testing8internal21UniversalTersePrinterIPN3s215ModelEE5PrintERKS4_PSo
FNDA:0,_ZN7testing8internal21UniversalTersePrinterIPPiE5PrintERKS3_PSo
FNDA:0,_ZN7testing8internal21UniversalTersePrinterIbE5PrintERKbPSo
FNDA:0,_ZN7testing8internal21UniversalTersePrinterIiE5PrintERKiPSo
FNF:52
FNH:0
DA:190,0
DA:191,0
DA:192,0
DA:197,0
DA:199,0
DA:221,0
DA:225,0
DA:226,0
DA:326,0
DA:336,0
DA:337,0
DA:357,0
DA:358,0
DA:437,0
DA:439,0
DA:464,0
DA:465,0
DA:466,0
DA:483,0
DA:484,0
DA:485,0
DA:699,0
DA:799,0
DA:808,0
DA:809,0
DA:989,0
DA:990,0
DA:991,0
DA:1108,0
DA:1112,0
DA:1113,0
DA:1148,0
DA:1149,0
DA:1150,0
DA:1151,0
DA:1152,0
LF:36
LH:0
end_of_record
TN:
SF:/usr/include/gtest/gtest.h
FN:1359,1365,_ZN7testing8internal18CmpHelperEQFailureIPN3s215ModelES4_EENS_15AssertionResultEPKcS7_RKT_RKT0_
FN:1359,1365,_ZN7testing8internal18CmpHelperEQFailureIbbEENS_15AssertionResultEPKcS4_RKT_RKT0_
FN:1359,1365,_ZN7testing8internal18CmpHelperEQFailureIi9GameStateEENS_15AssertionResultEPKcS5_RKT_RKT0_
FN:1359,1365,_ZN7testing8internal18CmpHelperEQFailureIiiEENS_15AssertionResultEPKcS4_RKT_RKT0_
FN:1376,1384,_ZN7testing8internal11CmpHelperEQIPN3s215ModelES4_EENS_15AssertionResultEPKcS7_RKT_RKT0_
FN:1376,1384,_ZN7testing8internal11CmpHelperEQIbbEENS_15AssertionResultEPKcS4_RKT_RKT0_
FN:1376,1384,_ZN7testing8internal11CmpHelperEQIi9GameStateEENS_15AssertionResultEPKcS5_RKT_RKT0_
FN:1376,1384,_ZN7testing8internal11CmpHelperEQIiiEENS_15AssertionResultEPKcS4_RKT_RKT0_
FN:1395,1399,_ZN7testing8internal8EqHelper7CompareIPN3s215ModelES5_LPv0EEENS_15AssertionResultEPKcS9_RKT_RKT0_
FN:1395,1399,_ZN7testing8internal8EqHelper7CompareIbbLPv0EEENS_15AssertionResultEPKcS6_RKT_RKT0_
FN:1395,1399,_ZN7testing8internal8EqHelper7CompareIi9GameStateLPv0EEENS_15AssertionResultEPKcS7_RKT_RKT0_
FN:1395,1399,_ZN7testing8internal8EqHelper7CompareIiiLPv0EEENS_15AssertionResultEPKcS6_RKT_RKT0_
FN:1428,1435,_ZN7testing8internal18CmpHelperOpFailureIPPiDnEENS_15AssertionResultEPKcS6_RKT_RKT0_S6_
FN:1457,1457,_ZN7testing8internal11CmpHelperNEIPPiDnEENS_15AssertionResultEPKcS6_RKT_RKT0_
FN:2317,2317,_Z13RUN_ALL_TESTSv
FN:256,256,_ZN7testing4Test14SetUpTestSuiteEv
FN:264,264,_ZN7testing4Test17TearDownTestSuiteEv
FN:269,269,_ZN7testing4Test16TearDownTestCaseEv
FN:270,270,_ZN7testing4Test13SetUpTestCaseEv
FN:357,357,_ZN7testing4Test5SetupEv
FNDA:0,_ZN7testing8internal18CmpHelperEQFailureIPN3s215ModelES4_EENS_15AssertionResultEPKcS7_RKT_RKT0_
FNDA:0,_ZN7testing8internal18CmpHelperEQFailureIbbEENS_15AssertionResultEPKcS4_RKT_RKT0_
FNDA:0,_ZN7testing8internal18CmpHelperEQFailureIi9GameStateEENS_15AssertionResultEPKcS5_RKT_RKT0_
FNDA:0,_ZN7testing8internal18CmpHelperEQFailureIiiEENS_15AssertionResultEPKcS4_RKT_RKT0_
FNDA:1,_ZN7testing8internal11CmpHelperEQIPN3s215ModelES4_EENS_15AssertionResultEPKcS7_RKT_RKT0_
FNDA:4,_ZN7testing8internal11CmpHelperEQIbbEENS_15AssertionResultEPKcS4_RKT_RKT0_
FNDA:12,_ZN7testing8internal11CmpHelperEQIi9GameStateEENS_15AssertionResultEPKcS5_RKT_RKT0_
FNDA:5,_ZN7testing8internal11CmpHelperEQIiiEENS_15AssertionResultEPKcS4_RKT_RKT0_
FNDA:1,_ZN7testing8internal8EqHelper7CompareIPN3s215ModelES5_LPv0EEENS_15AssertionResultEPKcS9_RKT_RKT0_
FNDA:4,_ZN7testing8internal8EqHelper7CompareIbbLPv0EEENS_15AssertionResultEPKcS6_RKT_RKT0_
FNDA:12,_ZN7testing8internal8EqHelper7CompareIi9GameStateLPv0EEENS_15AssertionResultEPKcS7_RKT_RKT0_
FNDA:5,_ZN7testing8internal8EqHelper7CompareIiiLPv0EEENS_15AssertionResultEPKcS6_RKT_RKT0_
FNDA:0,_ZN7testing8internal18CmpHelperOpFailureIPPiDnEENS_15AssertionResultEPKcS6_RKT_RKT0_S6_
FNDA:1,_ZN7testing8internal11CmpHelperNEIPPiDnEENS_15AssertionResultEPKcS6_RKT_RKT0_
FNDA:1,_Z13RUN_ALL_TESTSv
FNDA:0,_ZN7testing4Test14SetUpTestSuiteEv
FNDA:0,_ZN7testing4Test17TearDownTestSuiteEv
FNDA:0,_ZN7testing4Test16TearDownTestCaseEv
FNDA:0,_ZN7testing4Test13SetUpTestCaseEv
FNDA:0,_ZN7testing4Test5SetupEv
FNF:20
FNH:10
DA:256,0
DA:264,0
DA:269,0
DA:270,0
DA:357,0
DA:1359,0
DA:1364,0
DA:1376,22
DA:1379,22
DA:1380,22
DA:1383,0
DA:1395,22
DA:1398,22
DA:1428,0
DA:1432,0
DA:1433,0
DA:1434,0
DA:1457,1
DA:2317,1
LF:19
LH:7
end_of_record
TN:
SF:/usr/include/gtest/internal/gtest-internal.h
FN:438,438,_ZN7testing8internal15TestFactoryBaseD0Ev
FN:438,438,_ZN7testing8internal15TestFactoryBaseD2Ev
FN:445,445,_ZN7testing8internal15TestFactoryBaseC2Ev
FN:457,457,_ZN7testing8internal15TestFactoryImplI20go_end_go_end_1_TestE10CreateTestEv
FN:457,457,_ZN7testing8internal15TestFactoryImplI22userInput_up_up_1_TestE10CreateTestEv
FN:457,457,_ZN7testing8internal15TestFactoryImplI26get_model_get_model_1_TestE10CreateTestEv
FN:457,457,_ZN7testing8internal15TestFactoryImplI26init_game_init_game_1_TestE10CreateTestEv
FN:457,457,_ZN7testing8internal15TestFactoryImplI26set_snake_dir_up_up_1_TestE10CreateTestEv
FN:457,457,_ZN7testing8internal15TestFactoryImplI26userInput_down_down_1_TestE10CreateTestEv
FN:457,457,_ZN7testing8internal15TestFactoryImplI26userInput_left_left_1_TestE10CreateTestEv
FN:457,457,_ZN7testing8internal15TestFactoryImplI28get_s_info_get_s_info_1_TestE10CreateTestEv
FN:457,457,_ZN7testing8internal15TestFactoryImplI28userInput_pause_pause_1_TestE10CreateTestEv
FN:457,457,_ZN7testing8internal15TestFactoryImplI28userInput_right_right_1_TestE10CreateTestEv
FN:457,457,_ZN7testing8internal15TestFactoryImplI28userInput_start_right_1_TestE10CreateTestEv
FN:457,457,_ZN7testing8internal15TestFactoryImplI28userInput_start_wrong_1_TestE10CreateTestEv
FN:457,457,_ZN7testing8internal15TestFactoryImplI29updateCurrentState_get_1_TestE10CreateTestEv
FN:457,457,_ZN7testing8internal15TestFactoryImplI30set_snake_dir_down_down_1_TestE10CreateTestEv
FN:457,457,_ZN7testing8internal15TestFactoryImplI30set_snake_dir_left_left_1_TestE10CreateTestEv
FN:457,457,_ZN7testing8internal15TestFactoryImplI30take_break_take_a_break_1_TestE10CreateTestEv
FN:457,457,_ZN7testing8internal15TestFactoryImplI32change_speed_change_speed_1_TestE10CreateTestEv
FN:457,457,_ZN7testing8internal15TestFactoryImplI32change_speed_change_speed_2_TestE10CreateTestEv
FN:457,457,_ZN7testing8internal15TestFactoryImplI32set_snake_dir_right_right_1_TestE10CreateTestEv
FN:478,479,_ZN7testing8internal12CodeLocationC2ERKNSt7__cxx1112basic_stringIcSt11char_traitsIcESaIcEEEi
FN:491,494,_ZN7testing8internal19GetNotDefaultOrNullEPFvvES2_
FN:506,525,_ZN7testing8internal16SuiteApiResolverINS_4TestEE19GetSetUpCaseOrSuiteEPKci
FN:527,546,_ZN7testing8internal16SuiteApiResolverINS_4TestEE22GetTearDownCaseOrSuiteEPKci
FNDA:0,_ZN7testing8internal15TestFactoryBaseD0Ev
FNDA:19,_ZN7testing8internal15TestFactoryBaseD2Ev
FNDA:19,_ZN7testing8internal15TestFactoryBaseC2Ev
FNDA:1,_ZN7testing8internal15TestFactoryImplI20go_end_go_end_1_TestE10CreateTestEv
FNDA:1,_ZN7testing8internal15TestFactoryImplI22userInput_up_up_1_TestE10CreateTestEv
FNDA:1,_ZN7testing8internal15TestFactoryImplI26get_model_get_model_1_TestE10CreateTestEv
FNDA:1,_ZN7testing8internal15TestFactoryImplI26init_game_init_game_1_TestE10CreateTestEv
FNDA:1,_ZN7testing8internal15TestFactoryImplI26set_snake_dir_up_up_1_TestE10CreateTestEv
FNDA:1,_ZN7testing8internal15TestFactoryImplI26userInput_down_down_1_TestE10CreateTestEv
FNDA:1,_ZN7testing8internal15TestFactoryImplI26userInput_left_left_1_TestE10CreateTestEv
FNDA:1,_ZN7testing8internal15TestFactoryImplI28get_s_info_get_s_info_1_TestE10CreateTestEv
FNDA:1,_ZN7testing8internal15TestFactoryImplI28userInput_pause_pause_1_TestE10CreateTestEv
FNDA:1,_ZN7testing8internal15TestFactoryImplI28userInput_right_right_1_TestE10CreateTestEv
FNDA:1,_ZN7testing8internal15TestFactoryImplI28userInput_start_right_1_TestE10CreateTestEv
FNDA:1,_ZN7testing8internal15TestFactoryImplI28userInput_start_wrong_1_TestE10CreateTestEv
FNDA:1,_ZN7testing8internal15TestFactoryImplI29updateCurrentState_get_1_TestE10CreateTestEv
FNDA:1,_ZN7testing8internal15TestFactoryImplI30set_snake_dir_down_down_1_TestE10CreateTestEv
FNDA:1,_ZN7testing8internal15TestFactoryImplI30set_snake_dir_left_left_1_TestE10CreateTestEv
FNDA:1,_ZN7testing8internal15TestFactoryImplI30take_break_take_a_break_1_TestE10CreateTestEv
FNDA:1,_ZN7testing8internal15TestFactoryImplI32change_speed_change_speed_1_TestE10CreateTestEv
FNDA:1,_ZN7testing8internal15TestFactoryImplI32change_speed_change_speed_2_TestE10CreateTestEv
FNDA:1,_ZN7testing8internal15TestFactoryImplI32set_snake_dir_right_right_1_TestE10CreateTestEv
FNDA:19,_ZN7testing8internal12CodeLocationC2ERKNSt7__cxx1112basic_stringIcSt11char_traitsIcESaIcEEEi
FNDA:76,_ZN7testing8internal19GetNotDefaultOrNullEPFvvES2_
FNDA:19,_ZN7testing8internal16SuiteApiResolverINS_4TestEE19GetSetUpCaseOrSuiteEPKci
FNDA:19,_ZN7testing8internal16SuiteApiResolverINS_4TestEE22GetTearDownCaseOrSuiteEPKci
FNF:26
FNH:25
DA:438,19
DA:445,19
DA:457,19
DA:478,19
DA:479,19
DA:491,76
DA:493,76
DA:506,19
DA:510,19
DA:512,19
DA:514,19
DA:517,0
DA:519,19
DA:527,19
DA:531,19
DA:533,19
DA:535,19
DA:538,0
DA:540,19
LF:19
LH:17
end_of_record
TN:
SF:/usr/include/gtest/internal/gtest-port.h
FN:1042,1042,_ZN7testing8internal8GTestLog9GetStreamEv
FNDA:0,_ZN7testing8internal8GTestLog9GetStreamEv
FNF:1
FNH:0
DA:1042,0
LF:1
LH:0
end_of_record
TN:
SF:/usr/include/x86_64-linux-gnu/c++/13/bits/c++config.h
FN:540,551,_ZSt23__is_constant_evaluatedv
FNDA:728,_ZSt23__is_constant_evaluatedv
FNF:1
FNH:1
DA:540,728
DA:547,728
LF:2
LH:2
end_of_record
