TN:
SF:/home/artnr7/snake/src/brick_game/snake/controller/controller.cc
FN:22,52,_ZN3s2110Controller9userInputE12UserAction_tb
FN:54,57,_ZN3s2110Controller18updateCurrentStateEv
FNDA:12,_ZN3s2110Controller9userInputE12UserAction_tb
FNDA:9,_ZN3s2110Controller18updateCurrentStateEv
FNF:2
FNH:2
DA:22,12
DA:23,12
DA:25,12
DA:26,12
DA:27,7
DA:28,7
DA:29,7
DA:30,1
DA:31,1
DA:32,1
DA:33,0
DA:34,0
DA:35,0
DA:36,1
DA:37,1
DA:38,1
DA:39,1
DA:40,1
DA:41,1
DA:42,1
DA:43,1
DA:44,1
DA:45,1
DA:46,1
DA:47,1
DA:48,0
DA:49,0
DA:50,0
DA:52,12
DA:54,9
DA:55,9
DA:56,9
LF:32
LH:26
end_of_record
TN:
SF:/home/artnr7/snake/src/brick_game/snake/model/snake_anim/snake_anim.cc
FN:14,14,_ZN3s219SnakeAnim7GetBodyEv
FN:16,16,_ZN3s219SnakeAnim7GetHeadEv
FN:18,36,_ZN3s219SnakeAnim8MoveBodyEv
FN:38,47,_ZN3s219SnakeAnim14CheckCollisionEv
FN:4,12,_ZN3s219SnakeAnimC2Ev
FN:49,49,_ZN3s219SnakeAnim10RemoveTailEv
FN:51,83,_ZN3s219SnakeAnim12SetDirectionER12UserAction_t
FN:85,85,_ZN3s219SnakeAnim13GetConstSpeedEv
FN:87,87,_ZN3s219SnakeAnim8GetSpeedEv
FN:89,89,_ZN3s219SnakeAnim11GetAccSpeedEv
FNDA:20,_ZN3s219SnakeAnim7GetBodyEv
FNDA:30,_ZN3s219SnakeAnim7GetHeadEv
FNDA:0,_ZN3s219SnakeAnim8MoveBodyEv
FNDA:10,_ZN3s219SnakeAnim14CheckCollisionEv
FNDA:1,_ZN3s219SnakeAnimC2Ev
FNDA:0,_ZN3s219SnakeAnim10RemoveTailEv
FNDA:8,_ZN3s219SnakeAnim12SetDirectionER12UserAction_t
FNDA:1,_ZN3s219SnakeAnim13GetConstSpeedEv
FNDA:1,_ZN3s219SnakeAnim8GetSpeedEv
FNDA:1,_ZN3s219SnakeAnim11GetAccSpeedEv
FNF:10
FNH:8
DA:4,1
DA:5,5
DA:6,4
DA:8,1
DA:10,1
DA:11,1
DA:12,1
DA:14,20
DA:16,30
DA:18,0
DA:19,0
DA:21,0
DA:22,0
DA:23,0
DA:24,0
DA:25,0
DA:26,0
DA:27,0
DA:28,0
DA:29,0
DA:30,0
DA:31,0
DA:32,0
DA:35,0
DA:36,0
DA:38,10
DA:39,10
DA:40,10
DA:41,40
DA:42,30
DA:43,0
DA:46,10
DA:49,0
DA:51,8
DA:53,8
DA:54,2
DA:55,2
DA:56,2
DA:58,2
DA:59,2
DA:60,2
DA:61,2
DA:63,2
DA:64,2
DA:65,2
DA:66,2
DA:68,2
DA:69,2
DA:70,2
DA:71,2
DA:73,2
DA:74,0
DA:75,0
DA:76,0
DA:77,0
DA:78,0
DA:79,0
DA:80,0
DA:81,0
DA:83,8
DA:85,1
DA:87,1
DA:89,1
LF:63
LH:37
end_of_record
TN:
SF:/home/artnr7/snake/src/brick_game/snake/model/src/apple.cc
FN:23,27,_ZN3s215Model10ParseAppleEv
FN:30,46,_ZN3s215Model8EatAppleEv
FN:7,20,_ZN3s215Model10SpawnAppleEv
FNDA:11,_ZN3s215Model10ParseAppleEv
FNDA:10,_ZN3s215Model8EatAppleEv
FNDA:1,_ZN3s215Model10SpawnAppleEv
FNF:3
FNH:3
DA:7,1
DA:9,1
DA:10,1
DA:12,1
DA:13,1
DA:16,1
DA:17,1
DA:18,1
DA:20,1
DA:23,11
DA:24,11
DA:25,1
DA:26,10
DA:30,10
DA:31,10
DA:32,0
DA:34,10
DA:35,10
DA:36,10
DA:37,0
DA:38,0
DA:39,0
DA:40,0
DA:41,0
DA:42,0
DA:45,10
LF:26
LH:19
end_of_record
TN:
SF:/home/artnr7/snake/src/brick_game/snake/model/src/business.cc
FN:6,22,_ZN3s215Model8GameStepEv
FNDA:12,_ZN3s215Model8GameStepEv
FNF:1
FNH:1
DA:6,12
DA:7,12
DA:8,2
DA:9,10
DA:11,10
DA:13,10
DA:15,10
DA:17,10
DA:19,10
DA:21,10
LF:10
LH:10
end_of_record
TN:
SF:/home/artnr7/snake/src/brick_game/snake/model/src/gamestate.cc
FN:11,11,_ZN3s215Model17IsLanchedOrPausedEv
FN:13,16,_ZN3s215Model24IsGameoveredOrTerminatedEv
FN:18,18,_ZN3s215Model9IsGameEndEv
FN:20,20,_ZN3s215Model14IsGameInactiveEv
FN:3,3,_ZN3s215Model10IsLaunchedEv
FN:5,7,_ZN3s215Model12IsNoLaunchedEv
FN:9,9,_ZN3s215Model8IsPausedEv
FNDA:16,_ZN3s215Model17IsLanchedOrPausedEv
FNDA:1,_ZN3s215Model24IsGameoveredOrTerminatedEv
FNDA:1,_ZN3s215Model9IsGameEndEv
FNDA:0,_ZN3s215Model14IsGameInactiveEv
FNDA:141,_ZN3s215Model10IsLaunchedEv
FNDA:1,_ZN3s215Model12IsNoLaunchedEv
FNDA:17,_ZN3s215Model8IsPausedEv
FNF:7
FNH:6
DA:3,141
DA:5,1
DA:6,1
DA:9,17
DA:11,16
DA:13,1
DA:14,2
DA:15,2
DA:18,1
DA:20,0
LF:10
LH:9
end_of_record
TN:
SF:/home/artnr7/snake/src/brick_game/snake/model/src/highscore_and_level.cc
FN:14,24,_ZN3s215Model12SetHighscoreEv
FN:26,34,_ZN3s215Model12GetHighscoreEv
FN:8,12,_ZN3s215Model7LevelUpEv
FNDA:10,_ZN3s215Model12SetHighscoreEv
FNDA:1,_ZN3s215Model12GetHighscoreEv
FNDA:0,_ZN3s215Model7LevelUpEv
FNF:3
FNH:2
DA:8,0
DA:9,0
DA:10,0
DA:12,0
DA:14,10
DA:15,10
DA:16,0
DA:17,0
DA:18,0
DA:19,0
DA:20,0
DA:21,0
DA:23,0
DA:24,10
DA:26,1
DA:27,1
DA:28,1
DA:29,1
DA:30,1
DA:31,1
DA:33,1
DA:34,1
LF:22
LH:11
end_of_record
TN:
SF:/home/artnr7/snake/src/brick_game/snake/model/src/init.cc
FN:10,15,_ZN3s215Model8GetModelEv
FN:17,21,_ZN3s215ModelC2Ev
FN:23,31,_ZN3s215Model6MallocEv
FN:33,45,_ZN3s215Model8InitGameEv
FN:47,51,_ZN3s215Model9TakeBreakEv
FN:53,57,_ZN3s215Model5GoEndEv
FNDA:33,_ZN3s215Model8GetModelEv
FNDA:1,_ZN3s215ModelC2Ev
FNDA:1,_ZN3s215Model6MallocEv
FNDA:16,_ZN3s215Model8InitGameEv
FNDA:2,_ZN3s215Model9TakeBreakEv
FNDA:1,_ZN3s215Model5GoEndEv
FNF:6
FNH:6
DA:10,33
DA:11,33
DA:12,1
DA:14,33
DA:17,1
DA:18,1
DA:19,1
DA:20,1
DA:21,1
DA:23,1
DA:24,1
DA:25,21
DA:27,21
DA:28,200
DA:31,1
DA:33,16
DA:34,16
DA:35,2
DA:37,16
DA:38,15
DA:39,1
DA:40,1
DA:41,1
DA:42,1
DA:43,1
DA:44,1
DA:47,2
DA:48,2
DA:49,2
DA:51,2
DA:53,1
DA:54,1
DA:55,1
DA:57,1
LF:34
LH:34
end_of_record
TN:
SF:/home/artnr7/snake/src/brick_game/snake/model/src/snake_move.cc
FN:12,16,_ZN3s215Model15RemoveOrNotTailERbS1_
FN:6,10,_ZN3s215Model9MoveSnakeERb
FNDA:10,_ZN3s215Model15RemoveOrNotTailERbS1_
FNDA:10,_ZN3s215Model9MoveSnakeERb
FNF:2
FNH:2
DA:6,10
DA:7,10
DA:8,0
DA:10,10
DA:12,10
DA:13,10
DA:14,0
DA:16,10
LF:8
LH:6
end_of_record
TN:
SF:/home/artnr7/snake/src/brick_game/snake/model/src/speed.cc
FN:13,13,_ZN3s215Model11GetAccSpeedEv
FN:15,17,_ZN3s215Model18GetConstSnakeSpeedEv
FN:19,22,_ZN3s215Model13SetSnakeSpeedEv
FN:5,11,_ZN3s215Model11ChangeSpeedERb
FNDA:1,_ZN3s215Model11GetAccSpeedEv
FNDA:1,_ZN3s215Model18GetConstSnakeSpeedEv
FNDA:0,_ZN3s215Model13SetSnakeSpeedEv
FNDA:2,_ZN3s215Model11ChangeSpeedERb
FNF:4
FNH:3
DA:5,2
DA:6,2
DA:7,1
DA:9,1
DA:11,2
DA:13,1
DA:15,1
DA:16,1
DA:17,1
DA:19,0
DA:20,0
DA:21,0
DA:22,0
LF:13
LH:9
end_of_record
TN:
SF:/home/artnr7/snake/src/brick_game/snake/model/src/timer.cc
FN:4,26,_ZN3s215Model9MoveDelayEv
FNDA:10,_ZN3s215Model9MoveDelayEv
FNF:1
FNH:1
DA:4,10
DA:5,10
DA:6,0
DA:8,10
DA:9,10
DA:10,10
DA:11,10
DA:12,10
DA:13,10
DA:16,10
DA:18,10
DA:19,0
DA:20,0
DA:23,10
DA:25,10
LF:15
LH:12
end_of_record
TN:
SF:/home/artnr7/snake/src/brick_game/snake/model/src/utils.cc
FN:10,16,_ZN3s215Model9ParseObjsEv
FN:19,24,_ZN3s215Model10ParseSnakeEv
FN:27,35,_ZN3s215Model10ClearFieldEv
FN:39,46,_ZN3s215Model11WalkOnSnakeERNS_6PxCodeE
FN:49,53,_ZN3s215Model13IncreaseScoreEv
FN:55,59,_ZN3s215Model11SetSnakeDirER12UserAction_t
FN:63,68,_ZN3s215Model9CollisionEv
FN:70,79,_ZN3s215Model13WallCollisionEv
FN:8,8,_ZN3s215Model8GetSInfoEv
FN:81,87,_ZN3s215Model18SnakeSelfCollisionEv
FNDA:10,_ZN3s215Model9ParseObjsEv
FNDA:11,_ZN3s215Model10ParseSnakeEv
FNDA:10,_ZN3s215Model10ClearFieldEv
FNDA:10,_ZN3s215Model11WalkOnSnakeERNS_6PxCodeE
FNDA:0,_ZN3s215Model13IncreaseScoreEv
FNDA:8,_ZN3s215Model11SetSnakeDirER12UserAction_t
FNDA:10,_ZN3s215Model9CollisionEv
FNDA:10,_ZN3s215Model13WallCollisionEv
FNDA:21,_ZN3s215Model8GetSInfoEv
FNDA:10,_ZN3s215Model18SnakeSelfCollisionEv
FNF:10
FNH:9
DA:8,21
DA:10,10
DA:11,10
DA:12,0
DA:13,10
DA:14,10
DA:15,10
DA:19,11
DA:20,11
DA:21,1
DA:22,10
DA:23,10
DA:27,10
DA:28,10
DA:29,0
DA:30,210
DA:31,2200
DA:32,2000
DA:39,10
DA:40,10
DA:41,0
DA:42,10
DA:43,50
DA:44,40
DA:49,0
DA:50,0
DA:51,0
DA:52,0
DA:55,8
DA:56,8
DA:57,0
DA:58,8
DA:63,10
DA:64,10
DA:65,0
DA:66,10
DA:67,10
DA:70,10
DA:71,10
DA:72,0
DA:73,10
DA:75,10
DA:76,10
DA:77,0
DA:81,10
DA:82,10
DA:83,0
DA:84,10
DA:85,0
LF:49
LH:36
end_of_record
TN:
SF:/home/artnr7/snake/src/test_dir/snake/controller.cc
FN:16,16,_ZN28userInput_start_wrong_1_Test8TestBodyEv
FN:16,16,_ZN28userInput_start_wrong_1_TestC2Ev
FN:16,16,_ZN28userInput_start_wrong_1_TestD0Ev
FN:16,16,_ZN28userInput_start_wrong_1_TestD2Ev
FN:26,26,_ZN28userInput_pause_pause_1_Test8TestBodyEv
FN:26,26,_ZN28userInput_pause_pause_1_TestC2Ev
FN:26,26,_ZN28userInput_pause_pause_1_TestD0Ev
FN:26,26,_ZN28userInput_pause_pause_1_TestD2Ev
FN:38,45,_ZN22userInput_up_up_1_Test8TestBodyEv
FN:38,45,_ZN22userInput_up_up_1_TestC2Ev
FN:38,45,_ZN22userInput_up_up_1_TestD0Ev
FN:38,45,_ZN22userInput_up_up_1_TestD2Ev
FN:47,47,_ZN28userInput_right_right_1_Test8TestBodyEv
FN:47,47,_ZN28userInput_right_right_1_TestC2Ev
FN:47,47,_ZN28userInput_right_right_1_TestD0Ev
FN:47,47,_ZN28userInput_right_right_1_TestD2Ev
FN:5,5,_ZN28userInput_start_right_1_Test8TestBodyEv
FN:5,5,_ZN28userInput_start_right_1_TestC2Ev
FN:5,5,_ZN28userInput_start_right_1_TestD0Ev
FN:5,5,_ZN28userInput_start_right_1_TestD2Ev
FN:56,56,_ZN26userInput_down_down_1_Test8TestBodyEv
FN:56,56,_ZN26userInput_down_down_1_TestC2Ev
FN:56,56,_ZN26userInput_down_down_1_TestD0Ev
FN:56,56,_ZN26userInput_down_down_1_TestD2Ev
FN:65,65,_ZN26userInput_left_left_1_Test8TestBodyEv
FN:65,65,_ZN26userInput_left_left_1_TestC2Ev
FN:65,65,_ZN26userInput_left_left_1_TestD0Ev
FN:65,65,_ZN26userInput_left_left_1_TestD2Ev
FN:74,79,_ZN29updateCurrentState_get_1_Test8TestBodyEv
FN:74,79,_ZN29updateCurrentState_get_1_TestC2Ev
FN:74,79,_ZN29updateCurrentState_get_1_TestD0Ev
FN:74,79,_ZN29updateCurrentState_get_1_TestD2Ev
FNDA:1,_ZN28userInput_start_wrong_1_Test8TestBodyEv
FNDA:1,_ZN28userInput_start_wrong_1_TestC2Ev
FNDA:1,_ZN28userInput_start_wrong_1_TestD0Ev
FNDA:1,_ZN28userInput_start_wrong_1_TestD2Ev
FNDA:1,_ZN28userInput_pause_pause_1_Test8TestBodyEv
FNDA:1,_ZN28userInput_pause_pause_1_TestC2Ev
FNDA:1,_ZN28userInput_pause_pause_1_TestD0Ev
FNDA:1,_ZN28userInput_pause_pause_1_TestD2Ev
FNDA:1,_ZN22userInput_up_up_1_Test8TestBodyEv
FNDA:1,_ZN22userInput_up_up_1_TestC2Ev
FNDA:1,_ZN22userInput_up_up_1_TestD0Ev
FNDA:1,_ZN22userInput_up_up_1_TestD2Ev
FNDA:1,_ZN28userInput_right_right_1_Test8TestBodyEv
FNDA:1,_ZN28userInput_right_right_1_TestC2Ev
FNDA:1,_ZN28userInput_right_right_1_TestD0Ev
FNDA:1,_ZN28userInput_right_right_1_TestD2Ev
FNDA:1,_ZN28userInput_start_right_1_Test8TestBodyEv
FNDA:1,_ZN28userInput_start_right_1_TestC2Ev
FNDA:1,_ZN28userInput_start_right_1_TestD0Ev
FNDA:1,_ZN28userInput_start_right_1_TestD2Ev
FNDA:1,_ZN26userInput_down_down_1_Test8TestBodyEv
FNDA:1,_ZN26userInput_down_down_1_TestC2Ev
FNDA:1,_ZN26userInput_down_down_1_TestD0Ev
FNDA:1,_ZN26userInput_down_down_1_TestD2Ev
FNDA:1,_ZN26userInput_left_left_1_Test8TestBodyEv
FNDA:1,_ZN26userInput_left_left_1_TestC2Ev
FNDA:1,_ZN26userInput_left_left_1_TestD0Ev
FNDA:1,_ZN26userInput_left_left_1_TestD2Ev
FNDA:1,_ZN29updateCurrentState_get_1_Test8TestBodyEv
FNDA:1,_ZN29updateCurrentState_get_1_TestC2Ev
FNDA:1,_ZN29updateCurrentState_get_1_TestD0Ev
FNDA:1,_ZN29updateCurrentState_get_1_TestD2Ev
FNF:32
FNH:32
DA:5,4
DA:6,1
DA:7,1
DA:9,1
DA:10,1
DA:11,1
DA:13,1
DA:14,1
DA:16,4
DA:17,1
DA:18,1
DA:20,1
DA:21,1
DA:23,1
DA:24,1
DA:26,4
DA:27,1
DA:28,1
DA:30,1
DA:31,1
DA:32,1
DA:33,1
DA:35,1
DA:36,1
DA:38,4
DA:39,1
DA:40,1
DA:42,1
DA:44,1
DA:45,1
DA:47,4
DA:48,1
DA:49,1
DA:51,1
DA:53,1
DA:54,1
DA:56,4
DA:57,1
DA:58,1
DA:60,1
DA:62,1
DA:63,1
DA:65,4
DA:66,1
DA:67,1
DA:69,1
DA:71,1
DA:72,1
DA:74,4
DA:75,1
DA:76,1
DA:78,1
DA:79,1
LF:53
LH:53
end_of_record
TN:
SF:/home/artnr7/snake/src/test_dir/snake/main.cc
FN:3,6,main
FNDA:1,main
FNF:1
FNH:1
DA:3,1
DA:4,1
DA:5,1
LF:3
LH:3
end_of_record
TN:
SF:/home/artnr7/snake/src/test_dir/snake/utils.cc
FN:13,19,_Z9GInfoInitR10GameInfo_t
FN:21,27,_Z14GInfoWrongInitR10GameInfo_t
FN:29,50,_Z7EQGInfoR10GameInfo_tS0_
FN:4,11,_Z11MallocFieldPPPi
FN:52,52,_Z7EQEqualRb
FN:54,76,_Z7EQFieldPPiS0_
FN:78,89,_Z14AreObjsInFieldiPPi
FNDA:2,_Z9GInfoInitR10GameInfo_t
FNDA:1,_Z14GInfoWrongInitR10GameInfo_t
FNDA:4,_Z7EQGInfoR10GameInfo_tS0_
FNDA:2,_Z11MallocFieldPPPi
FNDA:13,_Z7EQEqualRb
FNDA:4,_Z7EQFieldPPiS0_
FNDA:2,_Z14AreObjsInFieldiPPi
FNF:7
FNH:7
DA:4,2
DA:6,42
DA:8,42
DA:9,440
DA:11,2
DA:13,2
DA:14,2
DA:15,2
DA:16,2
DA:17,2
DA:18,2
DA:19,2
DA:21,1
DA:22,1
DA:23,1
DA:24,1
DA:25,1
DA:26,1
DA:27,1
DA:29,4
DA:30,4
DA:32,4
DA:34,4
DA:35,4
DA:37,4
DA:38,4
DA:40,4
DA:41,4
DA:43,4
DA:44,4
DA:46,4
DA:47,4
DA:49,4
DA:52,13
DA:54,4
DA:55,4
DA:56,4
DA:57,4
DA:58,63
DA:59,660
DA:61,600
DA:62,0
DA:63,0
DA:70,4
DA:71,1
DA:75,4
DA:78,2
DA:79,2
DA:81,42
DA:82,440
DA:83,400
DA:84,5
DA:88,2
LF:53
LH:51
end_of_record
TN:
SF:/home/artnr7/snake/src/test_dir/snake/zmodel.cc
FN:108,108,_ZN32change_speed_change_speed_2_Test8TestBodyEv
FN:108,108,_ZN32change_speed_change_speed_2_TestC2Ev
FN:108,108,_ZN32change_speed_change_speed_2_TestD0Ev
FN:108,108,_ZN32change_speed_change_speed_2_TestD2Ev
FN:119,119,_ZN20go_end_go_end_1_Test8TestBodyEv
FN:119,119,_ZN20go_end_go_end_1_TestC2Ev
FN:119,119,_ZN20go_end_go_end_1_TestD0Ev
FN:119,119,_ZN20go_end_go_end_1_TestD2Ev
FN:21,21,_ZN28get_s_info_get_s_info_1_Test8TestBodyEv
FN:21,21,_ZN28get_s_info_get_s_info_1_TestC2Ev
FN:21,21,_ZN28get_s_info_get_s_info_1_TestD0Ev
FN:21,21,_ZN28get_s_info_get_s_info_1_TestD2Ev
FN:29,29,_ZN26init_game_init_game_1_Test8TestBodyEv
FN:29,29,_ZN26init_game_init_game_1_TestC2Ev
FN:29,29,_ZN26init_game_init_game_1_TestD0Ev
FN:29,29,_ZN26init_game_init_game_1_TestD2Ev
FN:44,44,_ZN30take_break_take_a_break_1_Test8TestBodyEv
FN:44,44,_ZN30take_break_take_a_break_1_TestC2Ev
FN:44,44,_ZN30take_break_take_a_break_1_TestD0Ev
FN:44,44,_ZN30take_break_take_a_break_1_TestD2Ev
FN:53,53,_ZN26set_snake_dir_up_up_1_Test8TestBodyEv
FN:53,53,_ZN26set_snake_dir_up_up_1_TestC2Ev
FN:53,53,_ZN26set_snake_dir_up_up_1_TestD0Ev
FN:53,53,_ZN26set_snake_dir_up_up_1_TestD2Ev
FN:6,6,_ZN26get_model_get_model_1_Test8TestBodyEv
FN:6,6,_ZN26get_model_get_model_1_TestC2Ev
FN:6,6,_ZN26get_model_get_model_1_TestD0Ev
FN:6,6,_ZN26get_model_get_model_1_TestD2Ev
FN:64,64,_ZN32set_snake_dir_right_right_1_Test8TestBodyEv
FN:64,64,_ZN32set_snake_dir_right_right_1_TestC2Ev
FN:64,64,_ZN32set_snake_dir_right_right_1_TestD0Ev
FN:64,64,_ZN32set_snake_dir_right_right_1_TestD2Ev
FN:75,75,_ZN30set_snake_dir_down_down_1_Test8TestBodyEv
FN:75,75,_ZN30set_snake_dir_down_down_1_TestC2Ev
FN:75,75,_ZN30set_snake_dir_down_down_1_TestD0Ev
FN:75,75,_ZN30set_snake_dir_down_down_1_TestD2Ev
FN:86,86,_ZN30set_snake_dir_left_left_1_Test8TestBodyEv
FN:86,86,_ZN30set_snake_dir_left_left_1_TestC2Ev
FN:86,86,_ZN30set_snake_dir_left_left_1_TestD0Ev
FN:86,86,_ZN30set_snake_dir_left_left_1_TestD2Ev
FN:97,106,_ZN32change_speed_change_speed_1_Test8TestBodyEv
FN:97,106,_ZN32change_speed_change_speed_1_TestC2Ev
FN:97,106,_ZN32change_speed_change_speed_1_TestD0Ev
FN:97,106,_ZN32change_speed_change_speed_1_TestD2Ev
FNDA:1,_ZN32change_speed_change_speed_2_Test8TestBodyEv
FNDA:1,_ZN32change_speed_change_speed_2_TestC2Ev
FNDA:1,_ZN32change_speed_change_speed_2_TestD0Ev
FNDA:1,_ZN32change_speed_change_speed_2_TestD2Ev
FNDA:1,_ZN20go_end_go_end_1_Test8TestBodyEv
FNDA:1,_ZN20go_end_go_end_1_TestC2Ev
FNDA:1,_ZN20go_end_go_end_1_TestD0Ev
FNDA:1,_ZN20go_end_go_end_1_TestD2Ev
FNDA:1,_ZN28get_s_info_get_s_info_1_Test8TestBodyEv
FNDA:1,_ZN28get_s_info_get_s_info_1_TestC2Ev
FNDA:1,_ZN28get_s_info_get_s_info_1_TestD0Ev
FNDA:1,_ZN28get_s_info_get_s_info_1_TestD2Ev
FNDA:1,_ZN26init_game_init_game_1_Test8TestBodyEv
FNDA:1,_ZN26init_game_init_game_1_TestC2Ev
FNDA:1,_ZN26init_game_init_game_1_TestD0Ev
FNDA:1,_ZN26init_game_init_game_1_TestD2Ev
FNDA:1,_ZN30take_break_take_a_break_1_Test8TestBodyEv
FNDA:1,_ZN30take_break_take_a_break_1_TestC2Ev
FNDA:1,_ZN30take_break_take_a_break_1_TestD0Ev
FNDA:1,_ZN30take_break_take_a_break_1_TestD2Ev
FNDA:1,_ZN26set_snake_dir_up_up_1_Test8TestBodyEv
FNDA:1,_ZN26set_snake_dir_up_up_1_TestC2Ev
FNDA:1,_ZN26set_snake_dir_up_up_1_TestD0Ev
FNDA:1,_ZN26set_snake_dir_up_up_1_TestD2Ev
FNDA:1,_ZN26get_model_get_model_1_Test8TestBodyEv
FNDA:1,_ZN26get_model_get_model_1_TestC2Ev
FNDA:1,_ZN26get_model_get_model_1_TestD0Ev
FNDA:1,_ZN26get_model_get_model_1_TestD2Ev
FNDA:1,_ZN32set_snake_dir_right_right_1_Test8TestBodyEv
FNDA:1,_ZN32set_snake_dir_right_right_1_TestC2Ev
FNDA:1,_ZN32set_snake_dir_right_right_1_TestD0Ev
FNDA:1,_ZN32set_snake_dir_right_right_1_TestD2Ev
FNDA:1,_ZN30set_snake_dir_down_down_1_Test8TestBodyEv
FNDA:1,_ZN30set_snake_dir_down_down_1_TestC2Ev
FNDA:1,_ZN30set_snake_dir_down_down_1_TestD0Ev
FNDA:1,_ZN30set_snake_dir_down_down_1_TestD2Ev
FNDA:1,_ZN30set_snake_dir_left_left_1_Test8TestBodyEv
FNDA:1,_ZN30set_snake_dir_left_left_1_TestC2Ev
FNDA:1,_ZN30set_snake_dir_left_left_1_TestD0Ev
FNDA:1,_ZN30set_snake_dir_left_left_1_TestD2Ev
FNDA:1,_ZN32change_speed_change_speed_1_Test8TestBodyEv
FNDA:1,_ZN32change_speed_change_speed_1_TestC2Ev
FNDA:1,_ZN32change_speed_change_speed_1_TestD0Ev
FNDA:1,_ZN32change_speed_change_speed_1_TestD2Ev
FNF:44
FNH:44
DA:6,4
DA:7,1
DA:9,1
DA:10,1
DA:12,1
DA:18,1
DA:19,1
DA:21,4
DA:22,1
DA:23,1
DA:24,1
DA:26,1
DA:27,1
DA:29,4
DA:30,1
DA:31,1
DA:33,1
DA:35,1
DA:36,1
DA:38,1
DA:39,1
DA:40,1
DA:41,1
DA:42,1
DA:44,4
DA:45,1
DA:46,1
DA:47,1
DA:49,1
DA:50,1
DA:51,1
DA:53,4
DA:54,1
DA:55,1
DA:57,1
DA:58,1
DA:60,1
DA:61,1
DA:62,1
DA:64,4
DA:65,1
DA:66,1
DA:68,1
DA:69,1
DA:71,1
DA:72,1
DA:73,1
DA:75,4
DA:76,1
DA:77,1
DA:79,1
DA:80,1
DA:82,1
DA:83,1
DA:84,1
DA:86,4
DA:87,1
DA:88,1
DA:90,1
DA:91,1
DA:93,1
DA:94,1
DA:95,1
DA:97,4
DA:98,1
DA:99,1
DA:101,1
DA:102,1
DA:104,1
DA:105,1
DA:106,1
DA:108,4
DA:109,1
DA:110,1
DA:112,1
DA:113,1
DA:115,1
DA:116,1
DA:117,1
DA:119,4
DA:120,1
DA:121,1
DA:122,1
DA:124,1
DA:125,1
DA:126,1
LF:86
LH:86
end_of_record
